
E Yantra C++.elf:     file format elf32-avr

Sections:
Idx Name          Size      VMA       LMA       File off  Algn
  0 .data         00000070  00800200  000047ae  00004842  2**0
                  CONTENTS, ALLOC, LOAD, DATA
  1 .text         000047ae  00000000  00000000  00000094  2**1
                  CONTENTS, ALLOC, LOAD, READONLY, CODE
  2 .bss          00001ba7  00800270  00800270  000048b2  2**0
                  ALLOC
  3 .comment      00000030  00000000  00000000  000048b2  2**0
                  CONTENTS, READONLY
  4 .debug_aranges 000002f0  00000000  00000000  000048e2  2**0
                  CONTENTS, READONLY, DEBUGGING
  5 .debug_info   000036cc  00000000  00000000  00004bd2  2**0
                  CONTENTS, READONLY, DEBUGGING
  6 .debug_abbrev 00000483  00000000  00000000  0000829e  2**0
                  CONTENTS, READONLY, DEBUGGING
  7 .debug_line   000035cd  00000000  00000000  00008721  2**0
                  CONTENTS, READONLY, DEBUGGING
  8 .debug_frame  000008c0  00000000  00000000  0000bcf0  2**2
                  CONTENTS, READONLY, DEBUGGING
  9 .debug_str    00000f8f  00000000  00000000  0000c5b0  2**0
                  CONTENTS, READONLY, DEBUGGING
 10 .debug_loc    00001ce9  00000000  00000000  0000d53f  2**0
                  CONTENTS, READONLY, DEBUGGING
 11 .debug_ranges 000002e0  00000000  00000000  0000f228  2**0
                  CONTENTS, READONLY, DEBUGGING

Disassembly of section .text:

00000000 <__vectors>:
       0:	7c c0       	rjmp	.+248    	; 0xfa <__ctors_end>
       2:	00 00       	nop
       4:	0c 94 7c 14 	jmp	0x28f8	; 0x28f8 <__vector_1>
       8:	a9 c0       	rjmp	.+338    	; 0x15c <__bad_interrupt>
       a:	00 00       	nop
       c:	a7 c0       	rjmp	.+334    	; 0x15c <__bad_interrupt>
       e:	00 00       	nop
      10:	a5 c0       	rjmp	.+330    	; 0x15c <__bad_interrupt>
      12:	00 00       	nop
      14:	11 c1       	rjmp	.+546    	; 0x238 <__vector_5>
      16:	00 00       	nop
      18:	ea c0       	rjmp	.+468    	; 0x1ee <__vector_6>
      1a:	00 00       	nop
      1c:	9f c0       	rjmp	.+318    	; 0x15c <__bad_interrupt>
      1e:	00 00       	nop
      20:	9d c0       	rjmp	.+314    	; 0x15c <__bad_interrupt>
      22:	00 00       	nop
      24:	9b c0       	rjmp	.+310    	; 0x15c <__bad_interrupt>
      26:	00 00       	nop
      28:	99 c0       	rjmp	.+306    	; 0x15c <__bad_interrupt>
      2a:	00 00       	nop
      2c:	97 c0       	rjmp	.+302    	; 0x15c <__bad_interrupt>
      2e:	00 00       	nop
      30:	95 c0       	rjmp	.+298    	; 0x15c <__bad_interrupt>
      32:	00 00       	nop
      34:	93 c0       	rjmp	.+294    	; 0x15c <__bad_interrupt>
      36:	00 00       	nop
      38:	91 c0       	rjmp	.+290    	; 0x15c <__bad_interrupt>
      3a:	00 00       	nop
      3c:	8f c0       	rjmp	.+286    	; 0x15c <__bad_interrupt>
      3e:	00 00       	nop
      40:	8d c0       	rjmp	.+282    	; 0x15c <__bad_interrupt>
      42:	00 00       	nop
      44:	8b c0       	rjmp	.+278    	; 0x15c <__bad_interrupt>
      46:	00 00       	nop
      48:	89 c0       	rjmp	.+274    	; 0x15c <__bad_interrupt>
      4a:	00 00       	nop
      4c:	87 c0       	rjmp	.+270    	; 0x15c <__bad_interrupt>
      4e:	00 00       	nop
      50:	85 c0       	rjmp	.+266    	; 0x15c <__bad_interrupt>
      52:	00 00       	nop
      54:	83 c0       	rjmp	.+262    	; 0x15c <__bad_interrupt>
      56:	00 00       	nop
      58:	81 c0       	rjmp	.+258    	; 0x15c <__bad_interrupt>
      5a:	00 00       	nop
      5c:	7f c0       	rjmp	.+254    	; 0x15c <__bad_interrupt>
      5e:	00 00       	nop
      60:	7d c0       	rjmp	.+250    	; 0x15c <__bad_interrupt>
      62:	00 00       	nop
      64:	7b c0       	rjmp	.+246    	; 0x15c <__bad_interrupt>
      66:	00 00       	nop
      68:	79 c0       	rjmp	.+242    	; 0x15c <__bad_interrupt>
      6a:	00 00       	nop
      6c:	77 c0       	rjmp	.+238    	; 0x15c <__bad_interrupt>
      6e:	00 00       	nop
      70:	75 c0       	rjmp	.+234    	; 0x15c <__bad_interrupt>
      72:	00 00       	nop
      74:	73 c0       	rjmp	.+230    	; 0x15c <__bad_interrupt>
      76:	00 00       	nop
      78:	71 c0       	rjmp	.+226    	; 0x15c <__bad_interrupt>
      7a:	00 00       	nop
      7c:	6f c0       	rjmp	.+222    	; 0x15c <__bad_interrupt>
      7e:	00 00       	nop
      80:	6d c0       	rjmp	.+218    	; 0x15c <__bad_interrupt>
      82:	00 00       	nop
      84:	6b c0       	rjmp	.+214    	; 0x15c <__bad_interrupt>
      86:	00 00       	nop
      88:	69 c0       	rjmp	.+210    	; 0x15c <__bad_interrupt>
      8a:	00 00       	nop
      8c:	67 c0       	rjmp	.+206    	; 0x15c <__bad_interrupt>
      8e:	00 00       	nop
      90:	65 c0       	rjmp	.+202    	; 0x15c <__bad_interrupt>
      92:	00 00       	nop
      94:	63 c0       	rjmp	.+198    	; 0x15c <__bad_interrupt>
      96:	00 00       	nop
      98:	61 c0       	rjmp	.+194    	; 0x15c <__bad_interrupt>
      9a:	00 00       	nop
      9c:	5f c0       	rjmp	.+190    	; 0x15c <__bad_interrupt>
      9e:	00 00       	nop
      a0:	5d c0       	rjmp	.+186    	; 0x15c <__bad_interrupt>
      a2:	00 00       	nop
      a4:	5b c0       	rjmp	.+182    	; 0x15c <__bad_interrupt>
      a6:	00 00       	nop
      a8:	59 c0       	rjmp	.+178    	; 0x15c <__bad_interrupt>
      aa:	00 00       	nop
      ac:	57 c0       	rjmp	.+174    	; 0x15c <__bad_interrupt>
      ae:	00 00       	nop
      b0:	55 c0       	rjmp	.+170    	; 0x15c <__bad_interrupt>
      b2:	00 00       	nop
      b4:	53 c0       	rjmp	.+166    	; 0x15c <__bad_interrupt>
      b6:	00 00       	nop
      b8:	51 c0       	rjmp	.+162    	; 0x15c <__bad_interrupt>
      ba:	00 00       	nop
      bc:	4f c0       	rjmp	.+158    	; 0x15c <__bad_interrupt>
      be:	00 00       	nop
      c0:	4d c0       	rjmp	.+154    	; 0x15c <__bad_interrupt>
      c2:	00 00       	nop
      c4:	4b c0       	rjmp	.+150    	; 0x15c <__bad_interrupt>
      c6:	00 00       	nop
      c8:	49 c0       	rjmp	.+146    	; 0x15c <__bad_interrupt>
      ca:	00 00       	nop
      cc:	47 c0       	rjmp	.+142    	; 0x15c <__bad_interrupt>
      ce:	00 00       	nop
      d0:	45 c0       	rjmp	.+138    	; 0x15c <__bad_interrupt>
      d2:	00 00       	nop
      d4:	43 c0       	rjmp	.+134    	; 0x15c <__bad_interrupt>
      d6:	00 00       	nop
      d8:	41 c0       	rjmp	.+130    	; 0x15c <__bad_interrupt>
      da:	00 00       	nop
      dc:	3f c0       	rjmp	.+126    	; 0x15c <__bad_interrupt>
      de:	00 00       	nop
      e0:	3d c0       	rjmp	.+122    	; 0x15c <__bad_interrupt>
      e2:	00 00       	nop
      e4:	33 16       	cp	r3, r19
      e6:	36 16       	cp	r3, r22
      e8:	1a 16       	cp	r1, r26
      ea:	1d 16       	cp	r1, r29
      ec:	20 16       	cp	r2, r16
      ee:	23 16       	cp	r2, r19
      f0:	26 16       	cp	r2, r22
      f2:	29 16       	cp	r2, r25
      f4:	2c 16       	cp	r2, r28
      f6:	2f 16       	cp	r2, r31

000000f8 <__ctors_start>:
      f8:	1a 22       	and	r1, r26

000000fa <__ctors_end>:
      fa:	11 24       	eor	r1, r1
      fc:	1f be       	out	0x3f, r1	; 63
      fe:	cf ef       	ldi	r28, 0xFF	; 255
     100:	d1 e2       	ldi	r29, 0x21	; 33
     102:	de bf       	out	0x3e, r29	; 62
     104:	cd bf       	out	0x3d, r28	; 61
     106:	00 e0       	ldi	r16, 0x00	; 0
     108:	0c bf       	out	0x3c, r16	; 60

0000010a <__do_copy_data>:
     10a:	12 e0       	ldi	r17, 0x02	; 2
     10c:	a0 e0       	ldi	r26, 0x00	; 0
     10e:	b2 e0       	ldi	r27, 0x02	; 2
     110:	ee ea       	ldi	r30, 0xAE	; 174
     112:	f7 e4       	ldi	r31, 0x47	; 71
     114:	00 e0       	ldi	r16, 0x00	; 0
     116:	0b bf       	out	0x3b, r16	; 59
     118:	02 c0       	rjmp	.+4      	; 0x11e <__do_copy_data+0x14>
     11a:	07 90       	elpm	r0, Z+
     11c:	0d 92       	st	X+, r0
     11e:	a0 37       	cpi	r26, 0x70	; 112
     120:	b1 07       	cpc	r27, r17
     122:	d9 f7       	brne	.-10     	; 0x11a <__do_copy_data+0x10>

00000124 <__do_clear_bss>:
     124:	2e e1       	ldi	r18, 0x1E	; 30
     126:	a0 e7       	ldi	r26, 0x70	; 112
     128:	b2 e0       	ldi	r27, 0x02	; 2
     12a:	01 c0       	rjmp	.+2      	; 0x12e <.do_clear_bss_start>

0000012c <.do_clear_bss_loop>:
     12c:	1d 92       	st	X+, r1

0000012e <.do_clear_bss_start>:
     12e:	a7 31       	cpi	r26, 0x17	; 23
     130:	b2 07       	cpc	r27, r18
     132:	e1 f7       	brne	.-8      	; 0x12c <.do_clear_bss_loop>

00000134 <__do_global_ctors>:
     134:	10 e0       	ldi	r17, 0x00	; 0
     136:	ca ef       	ldi	r28, 0xFA	; 250
     138:	d0 e0       	ldi	r29, 0x00	; 0
     13a:	00 e0       	ldi	r16, 0x00	; 0
     13c:	06 c0       	rjmp	.+12     	; 0x14a <__do_global_ctors+0x16>
     13e:	22 97       	sbiw	r28, 0x02	; 2
     140:	01 09       	sbc	r16, r1
     142:	fe 01       	movw	r30, r28
     144:	0b bf       	out	0x3b, r16	; 59
     146:	0e 94 d1 23 	call	0x47a2	; 0x47a2 <__tablejump_elpm__>
     14a:	c8 3f       	cpi	r28, 0xF8	; 248
     14c:	d1 07       	cpc	r29, r17
     14e:	80 e0       	ldi	r24, 0x00	; 0
     150:	08 07       	cpc	r16, r24
     152:	a9 f7       	brne	.-22     	; 0x13e <__do_global_ctors+0xa>
     154:	0e 94 ff 20 	call	0x41fe	; 0x41fe <main>
     158:	0c 94 d5 23 	jmp	0x47aa	; 0x47aa <_exit>

0000015c <__bad_interrupt>:
     15c:	51 cf       	rjmp	.-350    	; 0x0 <__vectors>

0000015e <_Z11timer5_initv>:
void print_sensor(char row, char coloumn,unsigned char channel)
{
	
	ADC_Value = ADC_Conversion(channel);
	lcd_print(row, coloumn, ADC_Value, 3);
}
     15e:	e1 e2       	ldi	r30, 0x21	; 33
     160:	f1 e0       	ldi	r31, 0x01	; 1
     162:	10 82       	st	Z, r1
     164:	8f ef       	ldi	r24, 0xFF	; 255
     166:	80 93 25 01 	sts	0x0125, r24
     16a:	91 e0       	ldi	r25, 0x01	; 1
     16c:	90 93 24 01 	sts	0x0124, r25
     170:	10 92 29 01 	sts	0x0129, r1
     174:	80 93 28 01 	sts	0x0128, r24
     178:	10 92 2b 01 	sts	0x012B, r1
     17c:	80 93 2a 01 	sts	0x012A, r24
     180:	10 92 2d 01 	sts	0x012D, r1
     184:	80 93 2c 01 	sts	0x012C, r24
     188:	89 ea       	ldi	r24, 0xA9	; 169
     18a:	80 93 20 01 	sts	0x0120, r24
     18e:	8b e0       	ldi	r24, 0x0B	; 11
     190:	80 83       	st	Z, r24
     192:	08 95       	ret

00000194 <_Z17motion_pin_configv>:
     194:	81 b1       	in	r24, 0x01	; 1
     196:	8f 60       	ori	r24, 0x0F	; 15
     198:	81 b9       	out	0x01, r24	; 1
     19a:	82 b1       	in	r24, 0x02	; 2
     19c:	80 7f       	andi	r24, 0xF0	; 240
     19e:	82 b9       	out	0x02, r24	; 2
     1a0:	ea e0       	ldi	r30, 0x0A	; 10
     1a2:	f1 e0       	ldi	r31, 0x01	; 1
     1a4:	80 81       	ld	r24, Z
     1a6:	88 61       	ori	r24, 0x18	; 24
     1a8:	80 83       	st	Z, r24
     1aa:	eb e0       	ldi	r30, 0x0B	; 11
     1ac:	f1 e0       	ldi	r31, 0x01	; 1
     1ae:	80 81       	ld	r24, Z
     1b0:	88 61       	ori	r24, 0x18	; 24
     1b2:	80 83       	st	Z, r24
     1b4:	08 95       	ret

000001b6 <_Z23left_encoder_pin_configv>:
     1b6:	6c 98       	cbi	0x0d, 4	; 13
     1b8:	74 9a       	sbi	0x0e, 4	; 14
     1ba:	08 95       	ret

000001bc <_Z24right_encoder_pin_configv>:
     1bc:	6d 98       	cbi	0x0d, 5	; 13
     1be:	75 9a       	sbi	0x0e, 5	; 14
     1c0:	08 95       	ret

000001c2 <_Z13port_init_posv>:
     1c2:	e8 df       	rcall	.-48     	; 0x194 <_Z17motion_pin_configv>
     1c4:	f8 df       	rcall	.-16     	; 0x1b6 <_Z23left_encoder_pin_configv>
     1c6:	fa cf       	rjmp	.-12     	; 0x1bc <_Z24right_encoder_pin_configv>
     1c8:	08 95       	ret

000001ca <_Z36left_position_encoder_interrupt_initv>:
     1ca:	f8 94       	cli
     1cc:	ea e6       	ldi	r30, 0x6A	; 106
     1ce:	f0 e0       	ldi	r31, 0x00	; 0
     1d0:	80 81       	ld	r24, Z
     1d2:	82 60       	ori	r24, 0x02	; 2
     1d4:	80 83       	st	Z, r24
     1d6:	ec 9a       	sbi	0x1d, 4	; 29
     1d8:	78 94       	sei
     1da:	08 95       	ret

000001dc <_Z37right_position_encoder_interrupt_initv>:
     1dc:	f8 94       	cli
     1de:	ea e6       	ldi	r30, 0x6A	; 106
     1e0:	f0 e0       	ldi	r31, 0x00	; 0
     1e2:	80 81       	ld	r24, Z
     1e4:	88 60       	ori	r24, 0x08	; 8
     1e6:	80 83       	st	Z, r24
     1e8:	ed 9a       	sbi	0x1d, 5	; 29
     1ea:	78 94       	sei
     1ec:	08 95       	ret

000001ee <__vector_6>:
     1ee:	1f 92       	push	r1
     1f0:	0f 92       	push	r0
     1f2:	0f b6       	in	r0, 0x3f	; 63
     1f4:	0f 92       	push	r0
     1f6:	11 24       	eor	r1, r1
     1f8:	8f 93       	push	r24
     1fa:	9f 93       	push	r25
     1fc:	af 93       	push	r26
     1fe:	bf 93       	push	r27
     200:	80 91 0c 1e 	lds	r24, 0x1E0C
     204:	90 91 0d 1e 	lds	r25, 0x1E0D
     208:	a0 91 0e 1e 	lds	r26, 0x1E0E
     20c:	b0 91 0f 1e 	lds	r27, 0x1E0F
     210:	01 96       	adiw	r24, 0x01	; 1
     212:	a1 1d       	adc	r26, r1
     214:	b1 1d       	adc	r27, r1
     216:	80 93 0c 1e 	sts	0x1E0C, r24
     21a:	90 93 0d 1e 	sts	0x1E0D, r25
     21e:	a0 93 0e 1e 	sts	0x1E0E, r26
     222:	b0 93 0f 1e 	sts	0x1E0F, r27
     226:	bf 91       	pop	r27
     228:	af 91       	pop	r26
     22a:	9f 91       	pop	r25
     22c:	8f 91       	pop	r24
     22e:	0f 90       	pop	r0
     230:	0f be       	out	0x3f, r0	; 63
     232:	0f 90       	pop	r0
     234:	1f 90       	pop	r1
     236:	18 95       	reti

00000238 <__vector_5>:
     238:	1f 92       	push	r1
     23a:	0f 92       	push	r0
     23c:	0f b6       	in	r0, 0x3f	; 63
     23e:	0f 92       	push	r0
     240:	11 24       	eor	r1, r1
     242:	8f 93       	push	r24
     244:	9f 93       	push	r25
     246:	af 93       	push	r26
     248:	bf 93       	push	r27
     24a:	80 91 10 1e 	lds	r24, 0x1E10
     24e:	90 91 11 1e 	lds	r25, 0x1E11
     252:	a0 91 12 1e 	lds	r26, 0x1E12
     256:	b0 91 13 1e 	lds	r27, 0x1E13
     25a:	01 96       	adiw	r24, 0x01	; 1
     25c:	a1 1d       	adc	r26, r1
     25e:	b1 1d       	adc	r27, r1
     260:	80 93 10 1e 	sts	0x1E10, r24
     264:	90 93 11 1e 	sts	0x1E11, r25
     268:	a0 93 12 1e 	sts	0x1E12, r26
     26c:	b0 93 13 1e 	sts	0x1E13, r27
     270:	bf 91       	pop	r27
     272:	af 91       	pop	r26
     274:	9f 91       	pop	r25
     276:	8f 91       	pop	r24
     278:	0f 90       	pop	r0
     27a:	0f be       	out	0x3f, r0	; 63
     27c:	0f 90       	pop	r0
     27e:	1f 90       	pop	r1
     280:	18 95       	reti

00000282 <_Z10motion_seth>:
     282:	92 b1       	in	r25, 0x02	; 2
     284:	90 7f       	andi	r25, 0xF0	; 240
     286:	8f 70       	andi	r24, 0x0F	; 15
     288:	98 2b       	or	r25, r24
     28a:	92 b9       	out	0x02, r25	; 2
     28c:	08 95       	ret

0000028e <_Z7forwardv>:
     28e:	86 e0       	ldi	r24, 0x06	; 6
     290:	f8 df       	rcall	.-16     	; 0x282 <_Z10motion_seth>
     292:	80 ef       	ldi	r24, 0xF0	; 240
     294:	80 93 28 01 	sts	0x0128, r24
     298:	86 ee       	ldi	r24, 0xE6	; 230
     29a:	80 93 2a 01 	sts	0x012A, r24
     29e:	08 95       	ret

000002a0 <_Z4backv>:
     2a0:	89 e0       	ldi	r24, 0x09	; 9
     2a2:	ef cf       	rjmp	.-34     	; 0x282 <_Z10motion_seth>
     2a4:	08 95       	ret

000002a6 <_Z4leftv>:
     2a6:	85 e0       	ldi	r24, 0x05	; 5
     2a8:	ec cf       	rjmp	.-40     	; 0x282 <_Z10motion_seth>
     2aa:	08 95       	ret

000002ac <_Z5rightv>:
     2ac:	8a e0       	ldi	r24, 0x0A	; 10
     2ae:	e9 cf       	rjmp	.-46     	; 0x282 <_Z10motion_seth>
     2b0:	08 95       	ret

000002b2 <_Z4stopv>:
     2b2:	80 e0       	ldi	r24, 0x00	; 0
     2b4:	e6 cf       	rjmp	.-52     	; 0x282 <_Z10motion_seth>
     2b6:	08 95       	ret

000002b8 <_Z18linear_distance_mmj>:
     2b8:	0f 93       	push	r16
     2ba:	1f 93       	push	r17
     2bc:	bc 01       	movw	r22, r24
     2be:	80 e0       	ldi	r24, 0x00	; 0
     2c0:	90 e0       	ldi	r25, 0x00	; 0
     2c2:	0e 94 2e 23 	call	0x465c	; 0x465c <__floatunsisf>
     2c6:	25 ee       	ldi	r18, 0xE5	; 229
     2c8:	30 ed       	ldi	r19, 0xD0	; 208
     2ca:	4a ea       	ldi	r20, 0xAA	; 170
     2cc:	50 e4       	ldi	r21, 0x40	; 64
     2ce:	0e 94 95 22 	call	0x452a	; 0x452a <__divsf3>
     2d2:	0e 94 02 23 	call	0x4604	; 0x4604 <__fixunssfsi>
     2d6:	10 92 0c 1e 	sts	0x1E0C, r1
     2da:	10 92 0d 1e 	sts	0x1E0D, r1
     2de:	10 92 0e 1e 	sts	0x1E0E, r1
     2e2:	10 92 0f 1e 	sts	0x1E0F, r1
     2e6:	00 91 0c 1e 	lds	r16, 0x1E0C
     2ea:	10 91 0d 1e 	lds	r17, 0x1E0D
     2ee:	20 91 0e 1e 	lds	r18, 0x1E0E
     2f2:	30 91 0f 1e 	lds	r19, 0x1E0F
     2f6:	60 17       	cp	r22, r16
     2f8:	71 07       	cpc	r23, r17
     2fa:	82 07       	cpc	r24, r18
     2fc:	93 07       	cpc	r25, r19
     2fe:	98 f7       	brcc	.-26     	; 0x2e6 <_Z18linear_distance_mmj+0x2e>
     300:	d8 df       	rcall	.-80     	; 0x2b2 <_Z4stopv>
     302:	1f 91       	pop	r17
     304:	0f 91       	pop	r16
     306:	08 95       	ret

00000308 <_Z10forward_mmj>:
     308:	cf 93       	push	r28
     30a:	df 93       	push	r29
     30c:	ec 01       	movw	r28, r24
     30e:	bf df       	rcall	.-130    	; 0x28e <_Z7forwardv>
     310:	ce 01       	movw	r24, r28
     312:	d2 df       	rcall	.-92     	; 0x2b8 <_Z18linear_distance_mmj>
     314:	df 91       	pop	r29
     316:	cf 91       	pop	r28
     318:	08 95       	ret

0000031a <_Z7back_mmj>:
     31a:	cf 93       	push	r28
     31c:	df 93       	push	r29
     31e:	ec 01       	movw	r28, r24
     320:	bf df       	rcall	.-130    	; 0x2a0 <_Z4backv>
     322:	ce 01       	movw	r24, r28
     324:	c9 df       	rcall	.-110    	; 0x2b8 <_Z18linear_distance_mmj>
     326:	df 91       	pop	r29
     328:	cf 91       	pop	r28
     32a:	08 95       	ret

0000032c <_Z16init_devices_posv>:
     32c:	f8 94       	cli
     32e:	49 df       	rcall	.-366    	; 0x1c2 <_Z13port_init_posv>
     330:	16 df       	rcall	.-468    	; 0x15e <_Z11timer5_initv>
     332:	4b df       	rcall	.-362    	; 0x1ca <_Z36left_position_encoder_interrupt_initv>
     334:	53 df       	rcall	.-346    	; 0x1dc <_Z37right_position_encoder_interrupt_initv>
     336:	78 94       	sei
     338:	08 95       	ret

0000033a <_Z7mapinitv>:
     33a:	2f 92       	push	r2
     33c:	3f 92       	push	r3
     33e:	4f 92       	push	r4
     340:	5f 92       	push	r5
     342:	6f 92       	push	r6
     344:	7f 92       	push	r7
     346:	8f 92       	push	r8
     348:	9f 92       	push	r9
     34a:	af 92       	push	r10
     34c:	bf 92       	push	r11
     34e:	cf 92       	push	r12
     350:	df 92       	push	r13
     352:	ef 92       	push	r14
     354:	ff 92       	push	r15
     356:	0f 93       	push	r16
     358:	1f 93       	push	r17
     35a:	cf 93       	push	r28
     35c:	df 93       	push	r29
     35e:	23 e6       	ldi	r18, 0x63	; 99
     360:	20 93 80 03 	sts	0x0380, r18
     364:	ee e9       	ldi	r30, 0x9E	; 158
     366:	f3 e0       	ldi	r31, 0x03	; 3
     368:	f0 93 86 03 	sts	0x0386, r31
     36c:	e0 93 85 03 	sts	0x0385, r30
     370:	00 ed       	ldi	r16, 0xD0	; 208
     372:	14 e0       	ldi	r17, 0x04	; 4
     374:	10 93 88 03 	sts	0x0388, r17
     378:	00 93 87 03 	sts	0x0387, r16
     37c:	8b e6       	ldi	r24, 0x6B	; 107
     37e:	93 e0       	ldi	r25, 0x03	; 3
     380:	90 93 8a 03 	sts	0x038A, r25
     384:	80 93 89 03 	sts	0x0389, r24
     388:	90 93 8c 03 	sts	0x038C, r25
     38c:	80 93 8b 03 	sts	0x038B, r24
     390:	0f 2e       	mov	r0, r31
     392:	f9 e6       	ldi	r31, 0x69	; 105
     394:	ff 2e       	mov	r15, r31
     396:	f0 2d       	mov	r31, r0
     398:	f0 92 91 03 	sts	0x0391, r15
     39c:	90 93 97 03 	sts	0x0397, r25
     3a0:	80 93 96 03 	sts	0x0396, r24
     3a4:	90 93 99 03 	sts	0x0399, r25
     3a8:	80 93 98 03 	sts	0x0398, r24
     3ac:	90 93 9d 03 	sts	0x039D, r25
     3b0:	80 93 9c 03 	sts	0x039C, r24
     3b4:	90 93 9b 03 	sts	0x039B, r25
     3b8:	80 93 9a 03 	sts	0x039A, r24
     3bc:	36 e7       	ldi	r19, 0x76	; 118
     3be:	30 93 a2 03 	sts	0x03A2, r19
     3c2:	62 ee       	ldi	r22, 0xE2	; 226
     3c4:	73 e0       	ldi	r23, 0x03	; 3
     3c6:	70 93 a8 03 	sts	0x03A8, r23
     3ca:	60 93 a7 03 	sts	0x03A7, r22
     3ce:	c6 e4       	ldi	r28, 0x46	; 70
     3d0:	d6 e0       	ldi	r29, 0x06	; 6
     3d2:	d0 93 aa 03 	sts	0x03AA, r29
     3d6:	c0 93 a9 03 	sts	0x03A9, r28
     3da:	0f 2e       	mov	r0, r31
     3dc:	fc e7       	ldi	r31, 0x7C	; 124
     3de:	af 2e       	mov	r10, r31
     3e0:	f3 e0       	ldi	r31, 0x03	; 3
     3e2:	bf 2e       	mov	r11, r31
     3e4:	f0 2d       	mov	r31, r0
     3e6:	b0 92 ac 03 	sts	0x03AC, r11
     3ea:	a0 92 ab 03 	sts	0x03AB, r10
     3ee:	90 93 ae 03 	sts	0x03AE, r25
     3f2:	80 93 ad 03 	sts	0x03AD, r24
     3f6:	f0 92 b3 03 	sts	0x03B3, r15
     3fa:	90 93 b9 03 	sts	0x03B9, r25
     3fe:	80 93 b8 03 	sts	0x03B8, r24
     402:	90 93 bb 03 	sts	0x03BB, r25
     406:	80 93 ba 03 	sts	0x03BA, r24
     40a:	90 93 bf 03 	sts	0x03BF, r25
     40e:	80 93 be 03 	sts	0x03BE, r24
     412:	90 93 bd 03 	sts	0x03BD, r25
     416:	80 93 bc 03 	sts	0x03BC, r24
     41a:	f0 92 c4 03 	sts	0x03C4, r15
     41e:	90 93 ca 03 	sts	0x03CA, r25
     422:	80 93 c9 03 	sts	0x03C9, r24
     426:	90 93 cc 03 	sts	0x03CC, r25
     42a:	80 93 cb 03 	sts	0x03CB, r24
     42e:	90 93 d0 03 	sts	0x03D0, r25
     432:	80 93 cf 03 	sts	0x03CF, r24
     436:	90 93 ce 03 	sts	0x03CE, r25
     43a:	80 93 cd 03 	sts	0x03CD, r24
     43e:	f0 92 d5 03 	sts	0x03D5, r15
     442:	90 93 db 03 	sts	0x03DB, r25
     446:	80 93 da 03 	sts	0x03DA, r24
     44a:	90 93 dd 03 	sts	0x03DD, r25
     44e:	80 93 dc 03 	sts	0x03DC, r24
     452:	90 93 e1 03 	sts	0x03E1, r25
     456:	80 93 e0 03 	sts	0x03E0, r24
     45a:	90 93 df 03 	sts	0x03DF, r25
     45e:	80 93 de 03 	sts	0x03DE, r24
     462:	30 93 e6 03 	sts	0x03E6, r19
     466:	a4 e0       	ldi	r26, 0x04	; 4
     468:	b4 e0       	ldi	r27, 0x04	; 4
     46a:	b0 93 ec 03 	sts	0x03EC, r27
     46e:	a0 93 eb 03 	sts	0x03EB, r26
     472:	4a e8       	ldi	r20, 0x8A	; 138
     474:	56 e0       	ldi	r21, 0x06	; 6
     476:	50 93 ee 03 	sts	0x03EE, r21
     47a:	40 93 ed 03 	sts	0x03ED, r20
     47e:	f0 93 f0 03 	sts	0x03F0, r31
     482:	e0 93 ef 03 	sts	0x03EF, r30
     486:	90 93 f2 03 	sts	0x03F2, r25
     48a:	80 93 f1 03 	sts	0x03F1, r24
     48e:	f0 92 f7 03 	sts	0x03F7, r15
     492:	90 93 fd 03 	sts	0x03FD, r25
     496:	80 93 fc 03 	sts	0x03FC, r24
     49a:	90 93 ff 03 	sts	0x03FF, r25
     49e:	80 93 fe 03 	sts	0x03FE, r24
     4a2:	90 93 03 04 	sts	0x0403, r25
     4a6:	80 93 02 04 	sts	0x0402, r24
     4aa:	90 93 01 04 	sts	0x0401, r25
     4ae:	80 93 00 04 	sts	0x0400, r24
     4b2:	20 93 08 04 	sts	0x0408, r18
     4b6:	90 93 0e 04 	sts	0x040E, r25
     4ba:	80 93 0d 04 	sts	0x040D, r24
     4be:	28 e5       	ldi	r18, 0x58	; 88
     4c0:	35 e0       	ldi	r19, 0x05	; 5
     4c2:	30 93 10 04 	sts	0x0410, r19
     4c6:	20 93 0f 04 	sts	0x040F, r18
     4ca:	70 93 12 04 	sts	0x0412, r23
     4ce:	60 93 11 04 	sts	0x0411, r22
     4d2:	90 93 14 04 	sts	0x0414, r25
     4d6:	80 93 13 04 	sts	0x0413, r24
     4da:	0f 2e       	mov	r0, r31
     4dc:	f8 e6       	ldi	r31, 0x68	; 104
     4de:	df 2e       	mov	r13, r31
     4e0:	f0 2d       	mov	r31, r0
     4e2:	d0 92 d4 04 	sts	0x04D4, r13
     4e6:	90 93 da 04 	sts	0x04DA, r25
     4ea:	80 93 d9 04 	sts	0x04D9, r24
     4ee:	0f 2e       	mov	r0, r31
     4f0:	f8 e7       	ldi	r31, 0x78	; 120
     4f2:	8f 2e       	mov	r8, r31
     4f4:	f7 e0       	ldi	r31, 0x07	; 7
     4f6:	9f 2e       	mov	r9, r31
     4f8:	f0 2d       	mov	r31, r0
     4fa:	90 92 dc 04 	sts	0x04DC, r9
     4fe:	80 92 db 04 	sts	0x04DB, r8
     502:	90 93 de 04 	sts	0x04DE, r25
     506:	80 93 dd 04 	sts	0x04DD, r24
     50a:	b0 92 e0 04 	sts	0x04E0, r11
     50e:	a0 92 df 04 	sts	0x04DF, r10
     512:	f0 92 e5 04 	sts	0x04E5, r15
     516:	90 93 eb 04 	sts	0x04EB, r25
     51a:	80 93 ea 04 	sts	0x04EA, r24
     51e:	90 93 ed 04 	sts	0x04ED, r25
     522:	80 93 ec 04 	sts	0x04EC, r24
     526:	90 93 f1 04 	sts	0x04F1, r25
     52a:	80 93 f0 04 	sts	0x04F0, r24
     52e:	90 93 ef 04 	sts	0x04EF, r25
     532:	80 93 ee 04 	sts	0x04EE, r24
     536:	f0 92 f6 04 	sts	0x04F6, r15
     53a:	90 93 fc 04 	sts	0x04FC, r25
     53e:	80 93 fb 04 	sts	0x04FB, r24
     542:	90 93 fe 04 	sts	0x04FE, r25
     546:	80 93 fd 04 	sts	0x04FD, r24
     54a:	90 93 02 05 	sts	0x0502, r25
     54e:	80 93 01 05 	sts	0x0501, r24
     552:	90 93 00 05 	sts	0x0500, r25
     556:	80 93 ff 04 	sts	0x04FF, r24
     55a:	f0 92 07 05 	sts	0x0507, r15
     55e:	90 93 0d 05 	sts	0x050D, r25
     562:	80 93 0c 05 	sts	0x050C, r24
     566:	90 93 0f 05 	sts	0x050F, r25
     56a:	80 93 0e 05 	sts	0x050E, r24
     56e:	90 93 13 05 	sts	0x0513, r25
     572:	80 93 12 05 	sts	0x0512, r24
     576:	90 93 11 05 	sts	0x0511, r25
     57a:	80 93 10 05 	sts	0x0510, r24
     57e:	f0 92 18 05 	sts	0x0518, r15
     582:	90 93 1e 05 	sts	0x051E, r25
     586:	80 93 1d 05 	sts	0x051D, r24
     58a:	90 93 20 05 	sts	0x0520, r25
     58e:	80 93 1f 05 	sts	0x051F, r24
     592:	90 93 24 05 	sts	0x0524, r25
     596:	80 93 23 05 	sts	0x0523, r24
     59a:	90 93 22 05 	sts	0x0522, r25
     59e:	80 93 21 05 	sts	0x0521, r24
     5a2:	f0 92 29 05 	sts	0x0529, r15
     5a6:	90 93 2f 05 	sts	0x052F, r25
     5aa:	80 93 2e 05 	sts	0x052E, r24
     5ae:	90 93 31 05 	sts	0x0531, r25
     5b2:	80 93 30 05 	sts	0x0530, r24
     5b6:	90 93 35 05 	sts	0x0535, r25
     5ba:	80 93 34 05 	sts	0x0534, r24
     5be:	90 93 33 05 	sts	0x0533, r25
     5c2:	80 93 32 05 	sts	0x0532, r24
     5c6:	f0 92 3a 05 	sts	0x053A, r15
     5ca:	90 93 40 05 	sts	0x0540, r25
     5ce:	80 93 3f 05 	sts	0x053F, r24
     5d2:	90 93 42 05 	sts	0x0542, r25
     5d6:	80 93 41 05 	sts	0x0541, r24
     5da:	90 93 46 05 	sts	0x0546, r25
     5de:	80 93 45 05 	sts	0x0545, r24
     5e2:	90 93 44 05 	sts	0x0544, r25
     5e6:	80 93 43 05 	sts	0x0543, r24
     5ea:	f0 92 4b 05 	sts	0x054B, r15
     5ee:	90 93 51 05 	sts	0x0551, r25
     5f2:	80 93 50 05 	sts	0x0550, r24
     5f6:	90 93 53 05 	sts	0x0553, r25
     5fa:	80 93 52 05 	sts	0x0552, r24
     5fe:	90 93 57 05 	sts	0x0557, r25
     602:	80 93 56 05 	sts	0x0556, r24
     606:	90 93 55 05 	sts	0x0555, r25
     60a:	80 93 54 05 	sts	0x0554, r24
     60e:	d0 92 5c 05 	sts	0x055C, r13
     612:	90 93 62 05 	sts	0x0562, r25
     616:	80 93 61 05 	sts	0x0561, r24
     61a:	0f 2e       	mov	r0, r31
     61c:	f0 e0       	ldi	r31, 0x00	; 0
     61e:	af 2e       	mov	r10, r31
     620:	f8 e0       	ldi	r31, 0x08	; 8
     622:	bf 2e       	mov	r11, r31
     624:	f0 2d       	mov	r31, r0
     626:	b0 92 64 05 	sts	0x0564, r11
     62a:	a0 92 63 05 	sts	0x0563, r10
     62e:	90 93 66 05 	sts	0x0566, r25
     632:	80 93 65 05 	sts	0x0565, r24
     636:	b0 93 68 05 	sts	0x0568, r27
     63a:	a0 93 67 05 	sts	0x0567, r26
     63e:	f0 92 28 06 	sts	0x0628, r15
     642:	90 93 2e 06 	sts	0x062E, r25
     646:	80 93 2d 06 	sts	0x062D, r24
     64a:	90 93 30 06 	sts	0x0630, r25
     64e:	80 93 2f 06 	sts	0x062F, r24
     652:	90 93 34 06 	sts	0x0634, r25
     656:	80 93 33 06 	sts	0x0633, r24
     65a:	90 93 32 06 	sts	0x0632, r25
     65e:	80 93 31 06 	sts	0x0631, r24
     662:	0f 2e       	mov	r0, r31
     664:	f3 e7       	ldi	r31, 0x73	; 115
     666:	ef 2e       	mov	r14, r31
     668:	f0 2d       	mov	r31, r0
     66a:	e0 92 39 06 	sts	0x0639, r14
     66e:	d0 93 3f 06 	sts	0x063F, r29
     672:	c0 93 3e 06 	sts	0x063E, r28
     676:	0f 2e       	mov	r0, r31
     678:	fd ed       	ldi	r31, 0xDD	; 221
     67a:	2f 2e       	mov	r2, r31
     67c:	f8 e0       	ldi	r31, 0x08	; 8
     67e:	3f 2e       	mov	r3, r31
     680:	f0 2d       	mov	r31, r0
     682:	30 92 41 06 	sts	0x0641, r3
     686:	20 92 40 06 	sts	0x0640, r2
     68a:	90 93 43 06 	sts	0x0643, r25
     68e:	80 93 42 06 	sts	0x0642, r24
     692:	90 93 45 06 	sts	0x0645, r25
     696:	80 93 44 06 	sts	0x0644, r24
     69a:	e0 92 4a 06 	sts	0x064A, r14
     69e:	a7 e5       	ldi	r26, 0x57	; 87
     6a0:	b6 e0       	ldi	r27, 0x06	; 6
     6a2:	b0 93 50 06 	sts	0x0650, r27
     6a6:	a0 93 4f 06 	sts	0x064F, r26
     6aa:	90 93 52 06 	sts	0x0652, r25
     6ae:	80 93 51 06 	sts	0x0651, r24
     6b2:	0f 2e       	mov	r0, r31
     6b4:	f5 e3       	ldi	r31, 0x35	; 53
     6b6:	8f 2e       	mov	r8, r31
     6b8:	f6 e0       	ldi	r31, 0x06	; 6
     6ba:	9f 2e       	mov	r9, r31
     6bc:	f0 2d       	mov	r31, r0
     6be:	90 92 54 06 	sts	0x0654, r9
     6c2:	80 92 53 06 	sts	0x0653, r8
     6c6:	f0 93 56 06 	sts	0x0656, r31
     6ca:	e0 93 55 06 	sts	0x0655, r30
     6ce:	e0 92 5b 06 	sts	0x065B, r14
     6d2:	90 93 61 06 	sts	0x0661, r25
     6d6:	80 93 60 06 	sts	0x0660, r24
     6da:	eb ea       	ldi	r30, 0xAB	; 171
     6dc:	f7 e0       	ldi	r31, 0x07	; 7
     6de:	f0 93 63 06 	sts	0x0663, r31
     6e2:	e0 93 62 06 	sts	0x0662, r30
     6e6:	d0 93 65 06 	sts	0x0665, r29
     6ea:	c0 93 64 06 	sts	0x0664, r28
     6ee:	90 93 67 06 	sts	0x0667, r25
     6f2:	80 93 66 06 	sts	0x0666, r24
     6f6:	f0 92 6c 06 	sts	0x066C, r15
     6fa:	90 93 72 06 	sts	0x0672, r25
     6fe:	80 93 71 06 	sts	0x0671, r24
     702:	90 93 74 06 	sts	0x0674, r25
     706:	80 93 73 06 	sts	0x0673, r24
     70a:	90 93 78 06 	sts	0x0678, r25
     70e:	80 93 77 06 	sts	0x0677, r24
     712:	90 93 76 06 	sts	0x0676, r25
     716:	80 93 75 06 	sts	0x0675, r24
     71a:	e0 92 7d 06 	sts	0x067D, r14
     71e:	50 93 83 06 	sts	0x0683, r21
     722:	40 93 82 06 	sts	0x0682, r20
     726:	0f 2e       	mov	r0, r31
     728:	fd ec       	ldi	r31, 0xCD	; 205
     72a:	af 2e       	mov	r10, r31
     72c:	f7 e0       	ldi	r31, 0x07	; 7
     72e:	bf 2e       	mov	r11, r31
     730:	f0 2d       	mov	r31, r0
     732:	b0 92 85 06 	sts	0x0685, r11
     736:	a0 92 84 06 	sts	0x0684, r10
     73a:	90 93 87 06 	sts	0x0687, r25
     73e:	80 93 86 06 	sts	0x0686, r24
     742:	90 93 89 06 	sts	0x0689, r25
     746:	80 93 88 06 	sts	0x0688, r24
     74a:	e0 92 8e 06 	sts	0x068E, r14
     74e:	cb e9       	ldi	r28, 0x9B	; 155
     750:	d6 e0       	ldi	r29, 0x06	; 6
     752:	d0 93 94 06 	sts	0x0694, r29
     756:	c0 93 93 06 	sts	0x0693, r28
     75a:	90 93 96 06 	sts	0x0696, r25
     75e:	80 93 95 06 	sts	0x0695, r24
     762:	c9 e7       	ldi	r28, 0x79	; 121
     764:	d6 e0       	ldi	r29, 0x06	; 6
     766:	d0 93 98 06 	sts	0x0698, r29
     76a:	c0 93 97 06 	sts	0x0697, r28
     76e:	70 93 9a 06 	sts	0x069A, r23
     772:	60 93 99 06 	sts	0x0699, r22
     776:	e0 92 9f 06 	sts	0x069F, r14
     77a:	90 93 a5 06 	sts	0x06A5, r25
     77e:	80 93 a4 06 	sts	0x06A4, r24
     782:	0f 2e       	mov	r0, r31
     784:	f3 e4       	ldi	r31, 0x43	; 67
     786:	4f 2e       	mov	r4, r31
     788:	f9 e0       	ldi	r31, 0x09	; 9
     78a:	5f 2e       	mov	r5, r31
     78c:	f0 2d       	mov	r31, r0
     78e:	50 92 a7 06 	sts	0x06A7, r5
     792:	40 92 a6 06 	sts	0x06A6, r4
     796:	50 93 a9 06 	sts	0x06A9, r21
     79a:	40 93 a8 06 	sts	0x06A8, r20
     79e:	90 93 ab 06 	sts	0x06AB, r25
     7a2:	80 93 aa 06 	sts	0x06AA, r24
     7a6:	f0 92 b0 06 	sts	0x06B0, r15
     7aa:	90 93 b6 06 	sts	0x06B6, r25
     7ae:	80 93 b5 06 	sts	0x06B5, r24
     7b2:	90 93 b8 06 	sts	0x06B8, r25
     7b6:	80 93 b7 06 	sts	0x06B7, r24
     7ba:	90 93 bc 06 	sts	0x06BC, r25
     7be:	80 93 bb 06 	sts	0x06BB, r24
     7c2:	90 93 ba 06 	sts	0x06BA, r25
     7c6:	80 93 b9 06 	sts	0x06B9, r24
     7ca:	d0 92 7c 07 	sts	0x077C, r13
     7ce:	90 93 82 07 	sts	0x0782, r25
     7d2:	80 93 81 07 	sts	0x0781, r24
     7d6:	0f 2e       	mov	r0, r31
     7d8:	f0 e2       	ldi	r31, 0x20	; 32
     7da:	6f 2e       	mov	r6, r31
     7dc:	fa e0       	ldi	r31, 0x0A	; 10
     7de:	7f 2e       	mov	r7, r31
     7e0:	f0 2d       	mov	r31, r0
     7e2:	70 92 84 07 	sts	0x0784, r7
     7e6:	60 92 83 07 	sts	0x0783, r6
     7ea:	90 93 86 07 	sts	0x0786, r25
     7ee:	80 93 85 07 	sts	0x0785, r24
     7f2:	10 93 88 07 	sts	0x0788, r17
     7f6:	00 93 87 07 	sts	0x0787, r16
     7fa:	f0 92 8d 07 	sts	0x078D, r15
     7fe:	90 93 93 07 	sts	0x0793, r25
     802:	80 93 92 07 	sts	0x0792, r24
     806:	90 93 95 07 	sts	0x0795, r25
     80a:	80 93 94 07 	sts	0x0794, r24
     80e:	90 93 99 07 	sts	0x0799, r25
     812:	80 93 98 07 	sts	0x0798, r24
     816:	90 93 97 07 	sts	0x0797, r25
     81a:	80 93 96 07 	sts	0x0796, r24
     81e:	f0 92 9e 07 	sts	0x079E, r15
     822:	90 93 a4 07 	sts	0x07A4, r25
     826:	80 93 a3 07 	sts	0x07A3, r24
     82a:	90 93 a6 07 	sts	0x07A6, r25
     82e:	80 93 a5 07 	sts	0x07A5, r24
     832:	90 93 aa 07 	sts	0x07AA, r25
     836:	80 93 a9 07 	sts	0x07A9, r24
     83a:	90 93 a8 07 	sts	0x07A8, r25
     83e:	80 93 a7 07 	sts	0x07A7, r24
     842:	e0 92 af 07 	sts	0x07AF, r14
     846:	6c eb       	ldi	r22, 0xBC	; 188
     848:	77 e0       	ldi	r23, 0x07	; 7
     84a:	70 93 b5 07 	sts	0x07B5, r23
     84e:	60 93 b4 07 	sts	0x07B4, r22
     852:	0f ef       	ldi	r16, 0xFF	; 255
     854:	18 e0       	ldi	r17, 0x08	; 8
     856:	10 93 b7 07 	sts	0x07B7, r17
     85a:	00 93 b6 07 	sts	0x07B6, r16
     85e:	90 93 b9 07 	sts	0x07B9, r25
     862:	80 93 b8 07 	sts	0x07B8, r24
     866:	b0 93 bb 07 	sts	0x07BB, r27
     86a:	a0 93 ba 07 	sts	0x07BA, r26
     86e:	0f 2e       	mov	r0, r31
     870:	fa e6       	ldi	r31, 0x6A	; 106
     872:	cf 2e       	mov	r12, r31
     874:	f0 2d       	mov	r31, r0
     876:	c0 92 c0 07 	sts	0x07C0, r12
     87a:	b0 92 c6 07 	sts	0x07C6, r11
     87e:	a0 92 c5 07 	sts	0x07C5, r10
     882:	48 eb       	ldi	r20, 0xB8	; 184
     884:	5b e0       	ldi	r21, 0x0B	; 11
     886:	50 93 c8 07 	sts	0x07C8, r21
     88a:	40 93 c7 07 	sts	0x07C7, r20
     88e:	f0 93 ca 07 	sts	0x07CA, r31
     892:	e0 93 c9 07 	sts	0x07C9, r30
     896:	90 93 cc 07 	sts	0x07CC, r25
     89a:	80 93 cb 07 	sts	0x07CB, r24
     89e:	e0 92 d1 07 	sts	0x07D1, r14
     8a2:	90 93 d7 07 	sts	0x07D7, r25
     8a6:	80 93 d6 07 	sts	0x07D6, r24
     8aa:	a1 e2       	ldi	r26, 0x21	; 33
     8ac:	b9 e0       	ldi	r27, 0x09	; 9
     8ae:	b0 93 d9 07 	sts	0x07D9, r27
     8b2:	a0 93 d8 07 	sts	0x07D8, r26
     8b6:	70 93 db 07 	sts	0x07DB, r23
     8ba:	60 93 da 07 	sts	0x07DA, r22
     8be:	d0 93 dd 07 	sts	0x07DD, r29
     8c2:	c0 93 dc 07 	sts	0x07DC, r28
     8c6:	f0 92 e2 07 	sts	0x07E2, r15
     8ca:	90 93 e8 07 	sts	0x07E8, r25
     8ce:	80 93 e7 07 	sts	0x07E7, r24
     8d2:	90 93 ea 07 	sts	0x07EA, r25
     8d6:	80 93 e9 07 	sts	0x07E9, r24
     8da:	90 93 ee 07 	sts	0x07EE, r25
     8de:	80 93 ed 07 	sts	0x07ED, r24
     8e2:	90 93 ec 07 	sts	0x07EC, r25
     8e6:	80 93 eb 07 	sts	0x07EB, r24
     8ea:	f0 92 f3 07 	sts	0x07F3, r15
     8ee:	90 93 f9 07 	sts	0x07F9, r25
     8f2:	80 93 f8 07 	sts	0x07F8, r24
     8f6:	90 93 fb 07 	sts	0x07FB, r25
     8fa:	80 93 fa 07 	sts	0x07FA, r24
     8fe:	90 93 ff 07 	sts	0x07FF, r25
     902:	80 93 fe 07 	sts	0x07FE, r24
     906:	90 93 fd 07 	sts	0x07FD, r25
     90a:	80 93 fc 07 	sts	0x07FC, r24
     90e:	d0 92 04 08 	sts	0x0804, r13
     912:	90 93 0a 08 	sts	0x080A, r25
     916:	80 93 09 08 	sts	0x0809, r24
     91a:	c8 ea       	ldi	r28, 0xA8	; 168
     91c:	da e0       	ldi	r29, 0x0A	; 10
     91e:	d0 93 0c 08 	sts	0x080C, r29
     922:	c0 93 0b 08 	sts	0x080B, r28
     926:	90 93 0e 08 	sts	0x080E, r25
     92a:	80 93 0d 08 	sts	0x080D, r24
     92e:	30 93 10 08 	sts	0x0810, r19
     932:	20 93 0f 08 	sts	0x080F, r18
     936:	f0 92 d0 08 	sts	0x08D0, r15
     93a:	90 93 d6 08 	sts	0x08D6, r25
     93e:	80 93 d5 08 	sts	0x08D5, r24
     942:	90 93 d8 08 	sts	0x08D8, r25
     946:	80 93 d7 08 	sts	0x08D7, r24
     94a:	90 93 dc 08 	sts	0x08DC, r25
     94e:	80 93 db 08 	sts	0x08DB, r24
     952:	90 93 da 08 	sts	0x08DA, r25
     956:	80 93 d9 08 	sts	0x08D9, r24
     95a:	e0 92 e1 08 	sts	0x08E1, r14
     95e:	2e ee       	ldi	r18, 0xEE	; 238
     960:	38 e0       	ldi	r19, 0x08	; 8
     962:	30 93 e7 08 	sts	0x08E7, r19
     966:	20 93 e6 08 	sts	0x08E6, r18
     96a:	90 93 e9 08 	sts	0x08E9, r25
     96e:	80 93 e8 08 	sts	0x08E8, r24
     972:	90 93 eb 08 	sts	0x08EB, r25
     976:	80 93 ea 08 	sts	0x08EA, r24
     97a:	90 92 ed 08 	sts	0x08ED, r9
     97e:	80 92 ec 08 	sts	0x08EC, r8
     982:	e0 92 f2 08 	sts	0x08F2, r14
     986:	10 93 f8 08 	sts	0x08F8, r17
     98a:	00 93 f7 08 	sts	0x08F7, r16
     98e:	ca ee       	ldi	r28, 0xEA	; 234
     990:	dc e0       	ldi	r29, 0x0C	; 12
     992:	d0 93 fa 08 	sts	0x08FA, r29
     996:	c0 93 f9 08 	sts	0x08F9, r28
     99a:	30 92 fc 08 	sts	0x08FC, r3
     99e:	20 92 fb 08 	sts	0x08FB, r2
     9a2:	90 93 fe 08 	sts	0x08FE, r25
     9a6:	80 93 fd 08 	sts	0x08FD, r24
     9aa:	e0 92 03 09 	sts	0x0903, r14
     9ae:	90 93 09 09 	sts	0x0909, r25
     9b2:	80 93 08 09 	sts	0x0908, r24
     9b6:	90 93 0b 09 	sts	0x090B, r25
     9ba:	80 93 0a 09 	sts	0x090A, r24
     9be:	30 93 0d 09 	sts	0x090D, r19
     9c2:	20 93 0c 09 	sts	0x090C, r18
     9c6:	f0 93 0f 09 	sts	0x090F, r31
     9ca:	e0 93 0e 09 	sts	0x090E, r30
     9ce:	f0 92 14 09 	sts	0x0914, r15
     9d2:	90 93 1a 09 	sts	0x091A, r25
     9d6:	80 93 19 09 	sts	0x0919, r24
     9da:	90 93 1c 09 	sts	0x091C, r25
     9de:	80 93 1b 09 	sts	0x091B, r24
     9e2:	90 93 20 09 	sts	0x0920, r25
     9e6:	80 93 1f 09 	sts	0x091F, r24
     9ea:	90 93 1e 09 	sts	0x091E, r25
     9ee:	80 93 1d 09 	sts	0x091D, r24
     9f2:	e0 92 25 09 	sts	0x0925, r14
     9f6:	e2 e3       	ldi	r30, 0x32	; 50
     9f8:	f9 e0       	ldi	r31, 0x09	; 9
     9fa:	f0 93 2b 09 	sts	0x092B, r31
     9fe:	e0 93 2a 09 	sts	0x092A, r30
     a02:	90 93 2d 09 	sts	0x092D, r25
     a06:	80 93 2c 09 	sts	0x092C, r24
     a0a:	90 93 2f 09 	sts	0x092F, r25
     a0e:	80 93 2e 09 	sts	0x092E, r24
     a12:	b0 92 31 09 	sts	0x0931, r11
     a16:	a0 92 30 09 	sts	0x0930, r10
     a1a:	e0 92 36 09 	sts	0x0936, r14
     a1e:	50 92 3c 09 	sts	0x093C, r5
     a22:	40 92 3b 09 	sts	0x093B, r4
     a26:	0e e2       	ldi	r16, 0x2E	; 46
     a28:	1d e0       	ldi	r17, 0x0D	; 13
     a2a:	10 93 3e 09 	sts	0x093E, r17
     a2e:	00 93 3d 09 	sts	0x093D, r16
     a32:	b0 93 40 09 	sts	0x0940, r27
     a36:	a0 93 3f 09 	sts	0x093F, r26
     a3a:	90 93 42 09 	sts	0x0942, r25
     a3e:	80 93 41 09 	sts	0x0941, r24
     a42:	e0 92 47 09 	sts	0x0947, r14
     a46:	90 93 4d 09 	sts	0x094D, r25
     a4a:	80 93 4c 09 	sts	0x094C, r24
     a4e:	90 93 4f 09 	sts	0x094F, r25
     a52:	80 93 4e 09 	sts	0x094E, r24
     a56:	f0 93 51 09 	sts	0x0951, r31
     a5a:	e0 93 50 09 	sts	0x0950, r30
     a5e:	eb e9       	ldi	r30, 0x9B	; 155
     a60:	f6 e0       	ldi	r31, 0x06	; 6
     a62:	f0 93 53 09 	sts	0x0953, r31
     a66:	e0 93 52 09 	sts	0x0952, r30
     a6a:	f0 92 58 09 	sts	0x0958, r15
     a6e:	90 93 5e 09 	sts	0x095E, r25
     a72:	80 93 5d 09 	sts	0x095D, r24
     a76:	90 93 60 09 	sts	0x0960, r25
     a7a:	80 93 5f 09 	sts	0x095F, r24
     a7e:	90 93 64 09 	sts	0x0964, r25
     a82:	80 93 63 09 	sts	0x0963, r24
     a86:	90 93 62 09 	sts	0x0962, r25
     a8a:	80 93 61 09 	sts	0x0961, r24
     a8e:	d0 92 24 0a 	sts	0x0A24, r13
     a92:	90 93 2a 0a 	sts	0x0A2A, r25
     a96:	80 93 29 0a 	sts	0x0A29, r24
     a9a:	e8 ec       	ldi	r30, 0xC8	; 200
     a9c:	fc e0       	ldi	r31, 0x0C	; 12
     a9e:	f0 93 2c 0a 	sts	0x0A2C, r31
     aa2:	e0 93 2b 0a 	sts	0x0A2B, r30
     aa6:	90 93 2e 0a 	sts	0x0A2E, r25
     aaa:	80 93 2d 0a 	sts	0x0A2D, r24
     aae:	0f 2e       	mov	r0, r31
     ab0:	f8 e7       	ldi	r31, 0x78	; 120
     ab2:	8f 2e       	mov	r8, r31
     ab4:	f7 e0       	ldi	r31, 0x07	; 7
     ab6:	9f 2e       	mov	r9, r31
     ab8:	f0 2d       	mov	r31, r0
     aba:	90 92 30 0a 	sts	0x0A30, r9
     abe:	80 92 2f 0a 	sts	0x0A2F, r8
     ac2:	f0 92 35 0a 	sts	0x0A35, r15
     ac6:	90 93 3b 0a 	sts	0x0A3B, r25
     aca:	80 93 3a 0a 	sts	0x0A3A, r24
     ace:	90 93 3d 0a 	sts	0x0A3D, r25
     ad2:	80 93 3c 0a 	sts	0x0A3C, r24
     ad6:	90 93 41 0a 	sts	0x0A41, r25
     ada:	80 93 40 0a 	sts	0x0A40, r24
     ade:	90 93 3f 0a 	sts	0x0A3F, r25
     ae2:	80 93 3e 0a 	sts	0x0A3E, r24
     ae6:	f0 92 46 0a 	sts	0x0A46, r15
     aea:	90 93 4c 0a 	sts	0x0A4C, r25
     aee:	80 93 4b 0a 	sts	0x0A4B, r24
     af2:	90 93 4e 0a 	sts	0x0A4E, r25
     af6:	80 93 4d 0a 	sts	0x0A4D, r24
     afa:	90 93 52 0a 	sts	0x0A52, r25
     afe:	80 93 51 0a 	sts	0x0A51, r24
     b02:	90 93 50 0a 	sts	0x0A50, r25
     b06:	80 93 4f 0a 	sts	0x0A4F, r24
     b0a:	f0 92 57 0a 	sts	0x0A57, r15
     b0e:	90 93 5d 0a 	sts	0x0A5D, r25
     b12:	80 93 5c 0a 	sts	0x0A5C, r24
     b16:	90 93 5f 0a 	sts	0x0A5F, r25
     b1a:	80 93 5e 0a 	sts	0x0A5E, r24
     b1e:	90 93 63 0a 	sts	0x0A63, r25
     b22:	80 93 62 0a 	sts	0x0A62, r24
     b26:	90 93 61 0a 	sts	0x0A61, r25
     b2a:	80 93 60 0a 	sts	0x0A60, r24
     b2e:	f0 92 68 0a 	sts	0x0A68, r15
     b32:	90 93 6e 0a 	sts	0x0A6E, r25
     b36:	80 93 6d 0a 	sts	0x0A6D, r24
     b3a:	90 93 70 0a 	sts	0x0A70, r25
     b3e:	80 93 6f 0a 	sts	0x0A6F, r24
     b42:	90 93 74 0a 	sts	0x0A74, r25
     b46:	80 93 73 0a 	sts	0x0A73, r24
     b4a:	90 93 72 0a 	sts	0x0A72, r25
     b4e:	80 93 71 0a 	sts	0x0A71, r24
     b52:	f0 92 79 0a 	sts	0x0A79, r15
     b56:	90 93 7f 0a 	sts	0x0A7F, r25
     b5a:	80 93 7e 0a 	sts	0x0A7E, r24
     b5e:	90 93 81 0a 	sts	0x0A81, r25
     b62:	80 93 80 0a 	sts	0x0A80, r24
     b66:	90 93 85 0a 	sts	0x0A85, r25
     b6a:	80 93 84 0a 	sts	0x0A84, r24
     b6e:	90 93 83 0a 	sts	0x0A83, r25
     b72:	80 93 82 0a 	sts	0x0A82, r24
     b76:	f0 92 8a 0a 	sts	0x0A8A, r15
     b7a:	90 93 90 0a 	sts	0x0A90, r25
     b7e:	80 93 8f 0a 	sts	0x0A8F, r24
     b82:	90 93 92 0a 	sts	0x0A92, r25
     b86:	80 93 91 0a 	sts	0x0A91, r24
     b8a:	90 93 96 0a 	sts	0x0A96, r25
     b8e:	80 93 95 0a 	sts	0x0A95, r24
     b92:	90 93 94 0a 	sts	0x0A94, r25
     b96:	80 93 93 0a 	sts	0x0A93, r24
     b9a:	f0 92 9b 0a 	sts	0x0A9B, r15
     b9e:	90 93 a1 0a 	sts	0x0AA1, r25
     ba2:	80 93 a0 0a 	sts	0x0AA0, r24
     ba6:	90 93 a3 0a 	sts	0x0AA3, r25
     baa:	80 93 a2 0a 	sts	0x0AA2, r24
     bae:	90 93 a7 0a 	sts	0x0AA7, r25
     bb2:	80 93 a6 0a 	sts	0x0AA6, r24
     bb6:	90 93 a5 0a 	sts	0x0AA5, r25
     bba:	80 93 a4 0a 	sts	0x0AA4, r24
     bbe:	d0 92 ac 0a 	sts	0x0AAC, r13
     bc2:	90 93 b2 0a 	sts	0x0AB2, r25
     bc6:	80 93 b1 0a 	sts	0x0AB1, r24
     bca:	a0 e5       	ldi	r26, 0x50	; 80
     bcc:	bd e0       	ldi	r27, 0x0D	; 13
     bce:	b0 93 b4 0a 	sts	0x0AB4, r27
     bd2:	a0 93 b3 0a 	sts	0x0AB3, r26
     bd6:	90 93 b6 0a 	sts	0x0AB6, r25
     bda:	80 93 b5 0a 	sts	0x0AB5, r24
     bde:	0f 2e       	mov	r0, r31
     be0:	f0 e0       	ldi	r31, 0x00	; 0
     be2:	af 2e       	mov	r10, r31
     be4:	f8 e0       	ldi	r31, 0x08	; 8
     be6:	bf 2e       	mov	r11, r31
     be8:	f0 2d       	mov	r31, r0
     bea:	b0 92 b8 0a 	sts	0x0AB8, r11
     bee:	a0 92 b7 0a 	sts	0x0AB7, r10
     bf2:	f0 92 78 0b 	sts	0x0B78, r15
     bf6:	90 93 7e 0b 	sts	0x0B7E, r25
     bfa:	80 93 7d 0b 	sts	0x0B7D, r24
     bfe:	90 93 80 0b 	sts	0x0B80, r25
     c02:	80 93 7f 0b 	sts	0x0B7F, r24
     c06:	90 93 84 0b 	sts	0x0B84, r25
     c0a:	80 93 83 0b 	sts	0x0B83, r24
     c0e:	90 93 82 0b 	sts	0x0B82, r25
     c12:	80 93 81 0b 	sts	0x0B81, r24
     c16:	f0 92 89 0b 	sts	0x0B89, r15
     c1a:	90 93 8f 0b 	sts	0x0B8F, r25
     c1e:	80 93 8e 0b 	sts	0x0B8E, r24
     c22:	90 93 91 0b 	sts	0x0B91, r25
     c26:	80 93 90 0b 	sts	0x0B90, r24
     c2a:	90 93 95 0b 	sts	0x0B95, r25
     c2e:	80 93 94 0b 	sts	0x0B94, r24
     c32:	90 93 93 0b 	sts	0x0B93, r25
     c36:	80 93 92 0b 	sts	0x0B92, r24
     c3a:	f0 92 9a 0b 	sts	0x0B9A, r15
     c3e:	90 93 a0 0b 	sts	0x0BA0, r25
     c42:	80 93 9f 0b 	sts	0x0B9F, r24
     c46:	90 93 a2 0b 	sts	0x0BA2, r25
     c4a:	80 93 a1 0b 	sts	0x0BA1, r24
     c4e:	90 93 a6 0b 	sts	0x0BA6, r25
     c52:	80 93 a5 0b 	sts	0x0BA5, r24
     c56:	90 93 a4 0b 	sts	0x0BA4, r25
     c5a:	80 93 a3 0b 	sts	0x0BA3, r24
     c5e:	e0 92 ab 0b 	sts	0x0BAB, r14
     c62:	50 93 b1 0b 	sts	0x0BB1, r21
     c66:	40 93 b0 0b 	sts	0x0BB0, r20
     c6a:	ab ef       	ldi	r26, 0xFB	; 251
     c6c:	bc e0       	ldi	r27, 0x0C	; 12
     c6e:	b0 93 b3 0b 	sts	0x0BB3, r27
     c72:	a0 93 b2 0b 	sts	0x0BB2, r26
     c76:	90 93 b5 0b 	sts	0x0BB5, r25
     c7a:	80 93 b4 0b 	sts	0x0BB4, r24
     c7e:	90 93 b7 0b 	sts	0x0BB7, r25
     c82:	80 93 b6 0b 	sts	0x0BB6, r24
     c86:	e0 92 bc 0b 	sts	0x0BBC, r14
     c8a:	09 ec       	ldi	r16, 0xC9	; 201
     c8c:	1b e0       	ldi	r17, 0x0B	; 11
     c8e:	10 93 c2 0b 	sts	0x0BC2, r17
     c92:	00 93 c1 0b 	sts	0x0BC1, r16
     c96:	90 93 c4 0b 	sts	0x0BC4, r25
     c9a:	80 93 c3 0b 	sts	0x0BC3, r24
     c9e:	07 ea       	ldi	r16, 0xA7	; 167
     ca0:	1b e0       	ldi	r17, 0x0B	; 11
     ca2:	10 93 c6 0b 	sts	0x0BC6, r17
     ca6:	00 93 c5 0b 	sts	0x0BC5, r16
     caa:	70 93 c8 0b 	sts	0x0BC8, r23
     cae:	60 93 c7 0b 	sts	0x0BC7, r22
     cb2:	e0 92 cd 0b 	sts	0x0BCD, r14
     cb6:	90 93 d3 0b 	sts	0x0BD3, r25
     cba:	80 93 d2 0b 	sts	0x0BD2, r24
     cbe:	6d e1       	ldi	r22, 0x1D	; 29
     cc0:	7d e0       	ldi	r23, 0x0D	; 13
     cc2:	70 93 d5 0b 	sts	0x0BD5, r23
     cc6:	60 93 d4 0b 	sts	0x0BD4, r22
     cca:	50 93 d7 0b 	sts	0x0BD7, r21
     cce:	40 93 d6 0b 	sts	0x0BD6, r20
     cd2:	90 93 d9 0b 	sts	0x0BD9, r25
     cd6:	80 93 d8 0b 	sts	0x0BD8, r24
     cda:	f0 92 de 0b 	sts	0x0BDE, r15
     cde:	90 93 e4 0b 	sts	0x0BE4, r25
     ce2:	80 93 e3 0b 	sts	0x0BE3, r24
     ce6:	90 93 e6 0b 	sts	0x0BE6, r25
     cea:	80 93 e5 0b 	sts	0x0BE5, r24
     cee:	90 93 ea 0b 	sts	0x0BEA, r25
     cf2:	80 93 e9 0b 	sts	0x0BE9, r24
     cf6:	90 93 e8 0b 	sts	0x0BE8, r25
     cfa:	80 93 e7 0b 	sts	0x0BE7, r24
     cfe:	f0 92 ef 0b 	sts	0x0BEF, r15
     d02:	90 93 f5 0b 	sts	0x0BF5, r25
     d06:	80 93 f4 0b 	sts	0x0BF4, r24
     d0a:	90 93 f7 0b 	sts	0x0BF7, r25
     d0e:	80 93 f6 0b 	sts	0x0BF6, r24
     d12:	90 93 fb 0b 	sts	0x0BFB, r25
     d16:	80 93 fa 0b 	sts	0x0BFA, r24
     d1a:	90 93 f9 0b 	sts	0x0BF9, r25
     d1e:	80 93 f8 0b 	sts	0x0BF8, r24
     d22:	f0 92 00 0c 	sts	0x0C00, r15
     d26:	90 93 06 0c 	sts	0x0C06, r25
     d2a:	80 93 05 0c 	sts	0x0C05, r24
     d2e:	90 93 08 0c 	sts	0x0C08, r25
     d32:	80 93 07 0c 	sts	0x0C07, r24
     d36:	90 93 0c 0c 	sts	0x0C0C, r25
     d3a:	80 93 0b 0c 	sts	0x0C0B, r24
     d3e:	90 93 0a 0c 	sts	0x0C0A, r25
     d42:	80 93 09 0c 	sts	0x0C09, r24
     d46:	d0 92 cc 0c 	sts	0x0CCC, r13
     d4a:	d0 93 d2 0c 	sts	0x0CD2, r29
     d4e:	c0 93 d1 0c 	sts	0x0CD1, r28
     d52:	40 e7       	ldi	r20, 0x70	; 112
     d54:	5f e0       	ldi	r21, 0x0F	; 15
     d56:	50 93 d4 0c 	sts	0x0CD4, r21
     d5a:	40 93 d3 0c 	sts	0x0CD3, r20
     d5e:	90 93 d6 0c 	sts	0x0CD6, r25
     d62:	80 93 d5 0c 	sts	0x0CD5, r24
     d66:	70 92 d8 0c 	sts	0x0CD8, r7
     d6a:	60 92 d7 0c 	sts	0x0CD7, r6
     d6e:	f0 92 dd 0c 	sts	0x0CDD, r15
     d72:	90 93 e3 0c 	sts	0x0CE3, r25
     d76:	80 93 e2 0c 	sts	0x0CE2, r24
     d7a:	90 93 e5 0c 	sts	0x0CE5, r25
     d7e:	80 93 e4 0c 	sts	0x0CE4, r24
     d82:	90 93 e9 0c 	sts	0x0CE9, r25
     d86:	80 93 e8 0c 	sts	0x0CE8, r24
     d8a:	90 93 e7 0c 	sts	0x0CE7, r25
     d8e:	80 93 e6 0c 	sts	0x0CE6, r24
     d92:	c0 92 ee 0c 	sts	0x0CEE, r12
     d96:	b0 93 f4 0c 	sts	0x0CF4, r27
     d9a:	a0 93 f3 0c 	sts	0x0CF3, r26
     d9e:	46 ee       	ldi	r20, 0xE6	; 230
     da0:	50 e1       	ldi	r21, 0x10	; 16
     da2:	50 93 f6 0c 	sts	0x0CF6, r21
     da6:	40 93 f5 0c 	sts	0x0CF5, r20
     daa:	f0 93 f8 0c 	sts	0x0CF8, r31
     dae:	e0 93 f7 0c 	sts	0x0CF7, r30
     db2:	30 93 fa 0c 	sts	0x0CFA, r19
     db6:	20 93 f9 0c 	sts	0x0CF9, r18
     dba:	e0 92 ff 0c 	sts	0x0CFF, r14
     dbe:	90 93 05 0d 	sts	0x0D05, r25
     dc2:	80 93 04 0d 	sts	0x0D04, r24
     dc6:	8f e4       	ldi	r24, 0x4F	; 79
     dc8:	9e e0       	ldi	r25, 0x0E	; 14
     dca:	90 93 07 0d 	sts	0x0D07, r25
     dce:	80 93 06 0d 	sts	0x0D06, r24
     dd2:	d0 93 09 0d 	sts	0x0D09, r29
     dd6:	c0 93 08 0d 	sts	0x0D08, r28
     dda:	10 93 0b 0d 	sts	0x0D0B, r17
     dde:	00 93 0a 0d 	sts	0x0D0A, r16
     de2:	f0 92 10 0d 	sts	0x0D10, r15
     de6:	8b e6       	ldi	r24, 0x6B	; 107
     de8:	93 e0       	ldi	r25, 0x03	; 3
     dea:	90 93 16 0d 	sts	0x0D16, r25
     dee:	80 93 15 0d 	sts	0x0D15, r24
     df2:	90 93 18 0d 	sts	0x0D18, r25
     df6:	80 93 17 0d 	sts	0x0D17, r24
     dfa:	90 93 1c 0d 	sts	0x0D1C, r25
     dfe:	80 93 1b 0d 	sts	0x0D1B, r24
     e02:	90 93 1a 0d 	sts	0x0D1A, r25
     e06:	80 93 19 0d 	sts	0x0D19, r24
     e0a:	e0 92 21 0d 	sts	0x0D21, r14
     e0e:	ce e2       	ldi	r28, 0x2E	; 46
     e10:	dd e0       	ldi	r29, 0x0D	; 13
     e12:	d0 93 27 0d 	sts	0x0D27, r29
     e16:	c0 93 26 0d 	sts	0x0D26, r28
     e1a:	61 e7       	ldi	r22, 0x71	; 113
     e1c:	7e e0       	ldi	r23, 0x0E	; 14
     e1e:	70 93 29 0d 	sts	0x0D29, r23
     e22:	60 93 28 0d 	sts	0x0D28, r22
     e26:	90 93 2b 0d 	sts	0x0D2B, r25
     e2a:	80 93 2a 0d 	sts	0x0D2A, r24
     e2e:	29 ec       	ldi	r18, 0xC9	; 201
     e30:	3b e0       	ldi	r19, 0x0B	; 11
     e32:	30 93 2d 0d 	sts	0x0D2D, r19
     e36:	20 93 2c 0d 	sts	0x0D2C, r18
     e3a:	c0 92 32 0d 	sts	0x0D32, r12
     e3e:	20 e5       	ldi	r18, 0x50	; 80
     e40:	3d e0       	ldi	r19, 0x0D	; 13
     e42:	30 93 38 0d 	sts	0x0D38, r19
     e46:	20 93 37 0d 	sts	0x0D37, r18
     e4a:	aa e2       	ldi	r26, 0x2A	; 42
     e4c:	b1 e1       	ldi	r27, 0x11	; 17
     e4e:	b0 93 3a 0d 	sts	0x0D3A, r27
     e52:	a0 93 39 0d 	sts	0x0D39, r26
     e56:	4d e1       	ldi	r20, 0x1D	; 29
     e58:	5d e0       	ldi	r21, 0x0D	; 13
     e5a:	50 93 3c 0d 	sts	0x0D3C, r21
     e5e:	40 93 3b 0d 	sts	0x0D3B, r20
     e62:	e2 e3       	ldi	r30, 0x32	; 50
     e64:	f9 e0       	ldi	r31, 0x09	; 9
     e66:	f0 93 3e 0d 	sts	0x0D3E, r31
     e6a:	e0 93 3d 0d 	sts	0x0D3D, r30
     e6e:	f0 92 43 0d 	sts	0x0D43, r15
     e72:	90 93 49 0d 	sts	0x0D49, r25
     e76:	80 93 48 0d 	sts	0x0D48, r24
     e7a:	90 93 4b 0d 	sts	0x0D4B, r25
     e7e:	80 93 4a 0d 	sts	0x0D4A, r24
     e82:	90 93 4f 0d 	sts	0x0D4F, r25
     e86:	80 93 4e 0d 	sts	0x0D4E, r24
     e8a:	90 93 4d 0d 	sts	0x0D4D, r25
     e8e:	80 93 4c 0d 	sts	0x0D4C, r24
     e92:	d0 92 54 0d 	sts	0x0D54, r13
     e96:	90 93 5a 0d 	sts	0x0D5A, r25
     e9a:	80 93 59 0d 	sts	0x0D59, r24
     e9e:	0f 2e       	mov	r0, r31
     ea0:	f8 ef       	ldi	r31, 0xF8	; 248
     ea2:	6f 2e       	mov	r6, r31
     ea4:	ff e0       	ldi	r31, 0x0F	; 15
     ea6:	7f 2e       	mov	r7, r31
     ea8:	f0 2d       	mov	r31, r0
     eaa:	70 92 5c 0d 	sts	0x0D5C, r7
     eae:	60 92 5b 0d 	sts	0x0D5B, r6
     eb2:	d0 93 5e 0d 	sts	0x0D5E, r29
     eb6:	c0 93 5d 0d 	sts	0x0D5D, r28
     eba:	e8 ea       	ldi	r30, 0xA8	; 168
     ebc:	fa e0       	ldi	r31, 0x0A	; 10
     ebe:	f0 93 60 0d 	sts	0x0D60, r31
     ec2:	e0 93 5f 0d 	sts	0x0D5F, r30
     ec6:	f0 92 20 0e 	sts	0x0E20, r15
     eca:	90 93 26 0e 	sts	0x0E26, r25
     ece:	80 93 25 0e 	sts	0x0E25, r24
     ed2:	90 93 28 0e 	sts	0x0E28, r25
     ed6:	80 93 27 0e 	sts	0x0E27, r24
     eda:	90 93 2c 0e 	sts	0x0E2C, r25
     ede:	80 93 2b 0e 	sts	0x0E2B, r24
     ee2:	90 93 2a 0e 	sts	0x0E2A, r25
     ee6:	80 93 29 0e 	sts	0x0E29, r24
     eea:	f0 92 31 0e 	sts	0x0E31, r15
     eee:	90 93 37 0e 	sts	0x0E37, r25
     ef2:	80 93 36 0e 	sts	0x0E36, r24
     ef6:	90 93 39 0e 	sts	0x0E39, r25
     efa:	80 93 38 0e 	sts	0x0E38, r24
     efe:	90 93 3d 0e 	sts	0x0E3D, r25
     f02:	80 93 3c 0e 	sts	0x0E3C, r24
     f06:	90 93 3b 0e 	sts	0x0E3B, r25
     f0a:	80 93 3a 0e 	sts	0x0E3A, r24
     f0e:	f0 92 42 0e 	sts	0x0E42, r15
     f12:	90 93 48 0e 	sts	0x0E48, r25
     f16:	80 93 47 0e 	sts	0x0E47, r24
     f1a:	90 93 4a 0e 	sts	0x0E4A, r25
     f1e:	80 93 49 0e 	sts	0x0E49, r24
     f22:	90 93 4e 0e 	sts	0x0E4E, r25
     f26:	80 93 4d 0e 	sts	0x0E4D, r24
     f2a:	90 93 4c 0e 	sts	0x0E4C, r25
     f2e:	80 93 4b 0e 	sts	0x0E4B, r24
     f32:	e0 92 53 0e 	sts	0x0E53, r14
     f36:	e0 e6       	ldi	r30, 0x60	; 96
     f38:	fe e0       	ldi	r31, 0x0E	; 14
     f3a:	f0 93 59 0e 	sts	0x0E59, r31
     f3e:	e0 93 58 0e 	sts	0x0E58, r30
     f42:	90 93 5b 0e 	sts	0x0E5B, r25
     f46:	80 93 5a 0e 	sts	0x0E5A, r24
     f4a:	90 93 5d 0e 	sts	0x0E5D, r25
     f4e:	80 93 5c 0e 	sts	0x0E5C, r24
     f52:	0b ef       	ldi	r16, 0xFB	; 251
     f54:	1c e0       	ldi	r17, 0x0C	; 12
     f56:	10 93 5f 0e 	sts	0x0E5F, r17
     f5a:	00 93 5e 0e 	sts	0x0E5E, r16
     f5e:	e0 92 64 0e 	sts	0x0E64, r14
     f62:	70 93 6a 0e 	sts	0x0E6A, r23
     f66:	60 93 69 0e 	sts	0x0E69, r22
     f6a:	6c e5       	ldi	r22, 0x5C	; 92
     f6c:	72 e1       	ldi	r23, 0x12	; 18
     f6e:	70 93 6c 0e 	sts	0x0E6C, r23
     f72:	60 93 6b 0e 	sts	0x0E6B, r22
     f76:	0f e4       	ldi	r16, 0x4F	; 79
     f78:	1e e0       	ldi	r17, 0x0E	; 14
     f7a:	10 93 6e 0e 	sts	0x0E6E, r17
     f7e:	00 93 6d 0e 	sts	0x0E6D, r16
     f82:	90 93 70 0e 	sts	0x0E70, r25
     f86:	80 93 6f 0e 	sts	0x0E6F, r24
     f8a:	e0 92 75 0e 	sts	0x0E75, r14
     f8e:	90 93 7b 0e 	sts	0x0E7B, r25
     f92:	80 93 7a 0e 	sts	0x0E7A, r24
     f96:	90 93 7d 0e 	sts	0x0E7D, r25
     f9a:	80 93 7c 0e 	sts	0x0E7C, r24
     f9e:	f0 93 7f 0e 	sts	0x0E7F, r31
     fa2:	e0 93 7e 0e 	sts	0x0E7E, r30
     fa6:	50 93 81 0e 	sts	0x0E81, r21
     faa:	40 93 80 0e 	sts	0x0E80, r20
     fae:	f0 92 86 0e 	sts	0x0E86, r15
     fb2:	90 93 8c 0e 	sts	0x0E8C, r25
     fb6:	80 93 8b 0e 	sts	0x0E8B, r24
     fba:	90 93 8e 0e 	sts	0x0E8E, r25
     fbe:	80 93 8d 0e 	sts	0x0E8D, r24
     fc2:	90 93 92 0e 	sts	0x0E92, r25
     fc6:	80 93 91 0e 	sts	0x0E91, r24
     fca:	90 93 90 0e 	sts	0x0E90, r25
     fce:	80 93 8f 0e 	sts	0x0E8F, r24
     fd2:	f0 92 97 0e 	sts	0x0E97, r15
     fd6:	90 93 9d 0e 	sts	0x0E9D, r25
     fda:	80 93 9c 0e 	sts	0x0E9C, r24
     fde:	90 93 9f 0e 	sts	0x0E9F, r25
     fe2:	80 93 9e 0e 	sts	0x0E9E, r24
     fe6:	90 93 a3 0e 	sts	0x0EA3, r25
     fea:	80 93 a2 0e 	sts	0x0EA2, r24
     fee:	90 93 a1 0e 	sts	0x0EA1, r25
     ff2:	80 93 a0 0e 	sts	0x0EA0, r24
     ff6:	f0 92 a8 0e 	sts	0x0EA8, r15
     ffa:	90 93 ae 0e 	sts	0x0EAE, r25
     ffe:	80 93 ad 0e 	sts	0x0EAD, r24
    1002:	90 93 b0 0e 	sts	0x0EB0, r25
    1006:	80 93 af 0e 	sts	0x0EAF, r24
    100a:	90 93 b4 0e 	sts	0x0EB4, r25
    100e:	80 93 b3 0e 	sts	0x0EB3, r24
    1012:	90 93 b2 0e 	sts	0x0EB2, r25
    1016:	80 93 b1 0e 	sts	0x0EB1, r24
    101a:	d0 92 74 0f 	sts	0x0F74, r13
    101e:	90 93 7a 0f 	sts	0x0F7A, r25
    1022:	80 93 79 0f 	sts	0x0F79, r24
    1026:	08 e1       	ldi	r16, 0x18	; 24
    1028:	12 e1       	ldi	r17, 0x12	; 18
    102a:	10 93 7c 0f 	sts	0x0F7C, r17
    102e:	00 93 7b 0f 	sts	0x0F7B, r16
    1032:	90 93 7e 0f 	sts	0x0F7E, r25
    1036:	80 93 7d 0f 	sts	0x0F7D, r24
    103a:	48 ec       	ldi	r20, 0xC8	; 200
    103c:	5c e0       	ldi	r21, 0x0C	; 12
    103e:	50 93 80 0f 	sts	0x0F80, r21
    1042:	40 93 7f 0f 	sts	0x0F7F, r20
    1046:	f0 92 85 0f 	sts	0x0F85, r15
    104a:	90 93 8b 0f 	sts	0x0F8B, r25
    104e:	80 93 8a 0f 	sts	0x0F8A, r24
    1052:	90 93 8d 0f 	sts	0x0F8D, r25
    1056:	80 93 8c 0f 	sts	0x0F8C, r24
    105a:	90 93 91 0f 	sts	0x0F91, r25
    105e:	80 93 90 0f 	sts	0x0F90, r24
    1062:	90 93 8f 0f 	sts	0x0F8F, r25
    1066:	80 93 8e 0f 	sts	0x0F8E, r24
    106a:	f0 92 96 0f 	sts	0x0F96, r15
    106e:	90 93 9c 0f 	sts	0x0F9C, r25
    1072:	80 93 9b 0f 	sts	0x0F9B, r24
    1076:	90 93 9e 0f 	sts	0x0F9E, r25
    107a:	80 93 9d 0f 	sts	0x0F9D, r24
    107e:	90 93 a2 0f 	sts	0x0FA2, r25
    1082:	80 93 a1 0f 	sts	0x0FA1, r24
    1086:	90 93 a0 0f 	sts	0x0FA0, r25
    108a:	80 93 9f 0f 	sts	0x0F9F, r24
    108e:	f0 92 a7 0f 	sts	0x0FA7, r15
    1092:	90 93 ad 0f 	sts	0x0FAD, r25
    1096:	80 93 ac 0f 	sts	0x0FAC, r24
    109a:	90 93 af 0f 	sts	0x0FAF, r25
    109e:	80 93 ae 0f 	sts	0x0FAE, r24
    10a2:	90 93 b3 0f 	sts	0x0FB3, r25
    10a6:	80 93 b2 0f 	sts	0x0FB2, r24
    10aa:	90 93 b1 0f 	sts	0x0FB1, r25
    10ae:	80 93 b0 0f 	sts	0x0FB0, r24
    10b2:	f0 92 b8 0f 	sts	0x0FB8, r15
    10b6:	90 93 be 0f 	sts	0x0FBE, r25
    10ba:	80 93 bd 0f 	sts	0x0FBD, r24
    10be:	90 93 c0 0f 	sts	0x0FC0, r25
    10c2:	80 93 bf 0f 	sts	0x0FBF, r24
    10c6:	90 93 c4 0f 	sts	0x0FC4, r25
    10ca:	80 93 c3 0f 	sts	0x0FC3, r24
    10ce:	90 93 c2 0f 	sts	0x0FC2, r25
    10d2:	80 93 c1 0f 	sts	0x0FC1, r24
    10d6:	f0 92 c9 0f 	sts	0x0FC9, r15
    10da:	90 93 cf 0f 	sts	0x0FCF, r25
    10de:	80 93 ce 0f 	sts	0x0FCE, r24
    10e2:	90 93 d1 0f 	sts	0x0FD1, r25
    10e6:	80 93 d0 0f 	sts	0x0FD0, r24
    10ea:	90 93 d5 0f 	sts	0x0FD5, r25
    10ee:	80 93 d4 0f 	sts	0x0FD4, r24
    10f2:	90 93 d3 0f 	sts	0x0FD3, r25
    10f6:	80 93 d2 0f 	sts	0x0FD2, r24
    10fa:	f0 92 da 0f 	sts	0x0FDA, r15
    10fe:	90 93 e0 0f 	sts	0x0FE0, r25
    1102:	80 93 df 0f 	sts	0x0FDF, r24
    1106:	90 93 e2 0f 	sts	0x0FE2, r25
    110a:	80 93 e1 0f 	sts	0x0FE1, r24
    110e:	90 93 e6 0f 	sts	0x0FE6, r25
    1112:	80 93 e5 0f 	sts	0x0FE5, r24
    1116:	90 93 e4 0f 	sts	0x0FE4, r25
    111a:	80 93 e3 0f 	sts	0x0FE3, r24
    111e:	f0 92 eb 0f 	sts	0x0FEB, r15
    1122:	90 93 f1 0f 	sts	0x0FF1, r25
    1126:	80 93 f0 0f 	sts	0x0FF0, r24
    112a:	90 93 f3 0f 	sts	0x0FF3, r25
    112e:	80 93 f2 0f 	sts	0x0FF2, r24
    1132:	90 93 f7 0f 	sts	0x0FF7, r25
    1136:	80 93 f6 0f 	sts	0x0FF6, r24
    113a:	90 93 f5 0f 	sts	0x0FF5, r25
    113e:	80 93 f4 0f 	sts	0x0FF4, r24
    1142:	d0 92 fc 0f 	sts	0x0FFC, r13
    1146:	90 93 02 10 	sts	0x1002, r25
    114a:	80 93 01 10 	sts	0x1001, r24
    114e:	40 ea       	ldi	r20, 0xA0	; 160
    1150:	52 e1       	ldi	r21, 0x12	; 18
    1152:	50 93 04 10 	sts	0x1004, r21
    1156:	40 93 03 10 	sts	0x1003, r20
    115a:	90 93 06 10 	sts	0x1006, r25
    115e:	80 93 05 10 	sts	0x1005, r24
    1162:	30 93 08 10 	sts	0x1008, r19
    1166:	20 93 07 10 	sts	0x1007, r18
    116a:	f0 92 c8 10 	sts	0x10C8, r15
    116e:	90 93 ce 10 	sts	0x10CE, r25
    1172:	80 93 cd 10 	sts	0x10CD, r24
    1176:	90 93 d0 10 	sts	0x10D0, r25
    117a:	80 93 cf 10 	sts	0x10CF, r24
    117e:	90 93 d4 10 	sts	0x10D4, r25
    1182:	80 93 d3 10 	sts	0x10D3, r24
    1186:	90 93 d2 10 	sts	0x10D2, r25
    118a:	80 93 d1 10 	sts	0x10D1, r24
    118e:	e0 92 d9 10 	sts	0x10D9, r14
    1192:	26 ee       	ldi	r18, 0xE6	; 230
    1194:	30 e1       	ldi	r19, 0x10	; 16
    1196:	30 93 df 10 	sts	0x10DF, r19
    119a:	20 93 de 10 	sts	0x10DE, r18
    119e:	0f 2e       	mov	r0, r31
    11a0:	fd e7       	ldi	r31, 0x7D	; 125
    11a2:	2f 2e       	mov	r2, r31
    11a4:	f3 e1       	ldi	r31, 0x13	; 19
    11a6:	3f 2e       	mov	r3, r31
    11a8:	f0 2d       	mov	r31, r0
    11aa:	30 92 e1 10 	sts	0x10E1, r3
    11ae:	20 92 e0 10 	sts	0x10E0, r2
    11b2:	90 93 e3 10 	sts	0x10E3, r25
    11b6:	80 93 e2 10 	sts	0x10E2, r24
    11ba:	90 93 e5 10 	sts	0x10E5, r25
    11be:	80 93 e4 10 	sts	0x10E4, r24
    11c2:	e0 92 ea 10 	sts	0x10EA, r14
    11c6:	07 ef       	ldi	r16, 0xF7	; 247
    11c8:	10 e1       	ldi	r17, 0x10	; 16
    11ca:	10 93 f0 10 	sts	0x10F0, r17
    11ce:	00 93 ef 10 	sts	0x10EF, r16
    11d2:	90 93 f2 10 	sts	0x10F2, r25
    11d6:	80 93 f1 10 	sts	0x10F1, r24
    11da:	0f 2e       	mov	r0, r31
    11dc:	f5 ed       	ldi	r31, 0xD5	; 213
    11de:	4f 2e       	mov	r4, r31
    11e0:	f0 e1       	ldi	r31, 0x10	; 16
    11e2:	5f 2e       	mov	r5, r31
    11e4:	f0 2d       	mov	r31, r0
    11e6:	50 92 f4 10 	sts	0x10F4, r5
    11ea:	40 92 f3 10 	sts	0x10F3, r4
    11ee:	4a ee       	ldi	r20, 0xEA	; 234
    11f0:	5c e0       	ldi	r21, 0x0C	; 12
    11f2:	50 93 f6 10 	sts	0x10F6, r21
    11f6:	40 93 f5 10 	sts	0x10F5, r20
    11fa:	e0 92 fb 10 	sts	0x10FB, r14
    11fe:	90 93 01 11 	sts	0x1101, r25
    1202:	80 93 00 11 	sts	0x1100, r24
    1206:	4b e4       	ldi	r20, 0x4B	; 75
    1208:	52 e1       	ldi	r21, 0x12	; 18
    120a:	50 93 03 11 	sts	0x1103, r21
    120e:	40 93 02 11 	sts	0x1102, r20
    1212:	30 93 05 11 	sts	0x1105, r19
    1216:	20 93 04 11 	sts	0x1104, r18
    121a:	90 93 07 11 	sts	0x1107, r25
    121e:	80 93 06 11 	sts	0x1106, r24
    1222:	f0 92 0c 11 	sts	0x110C, r15
    1226:	90 93 12 11 	sts	0x1112, r25
    122a:	80 93 11 11 	sts	0x1111, r24
    122e:	90 93 14 11 	sts	0x1114, r25
    1232:	80 93 13 11 	sts	0x1113, r24
    1236:	90 93 18 11 	sts	0x1118, r25
    123a:	80 93 17 11 	sts	0x1117, r24
    123e:	90 93 16 11 	sts	0x1116, r25
    1242:	80 93 15 11 	sts	0x1115, r24
    1246:	e0 92 1d 11 	sts	0x111D, r14
    124a:	b0 93 23 11 	sts	0x1123, r27
    124e:	a0 93 22 11 	sts	0x1122, r26
    1252:	2d e6       	ldi	r18, 0x6D	; 109
    1254:	32 e1       	ldi	r19, 0x12	; 18
    1256:	30 93 25 11 	sts	0x1125, r19
    125a:	20 93 24 11 	sts	0x1124, r18
    125e:	90 93 27 11 	sts	0x1127, r25
    1262:	80 93 26 11 	sts	0x1126, r24
    1266:	90 93 29 11 	sts	0x1129, r25
    126a:	80 93 28 11 	sts	0x1128, r24
    126e:	e0 92 2e 11 	sts	0x112E, r14
    1272:	0f 2e       	mov	r0, r31
    1274:	fb e3       	ldi	r31, 0x3B	; 59
    1276:	8f 2e       	mov	r8, r31
    1278:	f1 e1       	ldi	r31, 0x11	; 17
    127a:	9f 2e       	mov	r9, r31
    127c:	f0 2d       	mov	r31, r0
    127e:	90 92 34 11 	sts	0x1134, r9
    1282:	80 92 33 11 	sts	0x1133, r8
    1286:	90 93 36 11 	sts	0x1136, r25
    128a:	80 93 35 11 	sts	0x1135, r24
    128e:	0f 2e       	mov	r0, r31
    1290:	f9 e1       	ldi	r31, 0x19	; 25
    1292:	8f 2e       	mov	r8, r31
    1294:	f1 e1       	ldi	r31, 0x11	; 17
    1296:	9f 2e       	mov	r9, r31
    1298:	f0 2d       	mov	r31, r0
    129a:	90 92 38 11 	sts	0x1138, r9
    129e:	80 92 37 11 	sts	0x1137, r8
    12a2:	d0 93 3a 11 	sts	0x113A, r29
    12a6:	c0 93 39 11 	sts	0x1139, r28
    12aa:	e0 92 3f 11 	sts	0x113F, r14
    12ae:	90 93 45 11 	sts	0x1145, r25
    12b2:	80 93 44 11 	sts	0x1144, r24
    12b6:	0f 2e       	mov	r0, r31
    12b8:	f3 ee       	ldi	r31, 0xE3	; 227
    12ba:	af 2e       	mov	r10, r31
    12bc:	f3 e1       	ldi	r31, 0x13	; 19
    12be:	bf 2e       	mov	r11, r31
    12c0:	f0 2d       	mov	r31, r0
    12c2:	b0 92 47 11 	sts	0x1147, r11
    12c6:	a0 92 46 11 	sts	0x1146, r10
    12ca:	b0 93 49 11 	sts	0x1149, r27
    12ce:	a0 93 48 11 	sts	0x1148, r26
    12d2:	90 93 4b 11 	sts	0x114B, r25
    12d6:	80 93 4a 11 	sts	0x114A, r24
    12da:	f0 92 50 11 	sts	0x1150, r15
    12de:	90 93 56 11 	sts	0x1156, r25
    12e2:	80 93 55 11 	sts	0x1155, r24
    12e6:	90 93 58 11 	sts	0x1158, r25
    12ea:	80 93 57 11 	sts	0x1157, r24
    12ee:	90 93 5c 11 	sts	0x115C, r25
    12f2:	80 93 5b 11 	sts	0x115B, r24
    12f6:	90 93 5a 11 	sts	0x115A, r25
    12fa:	80 93 59 11 	sts	0x1159, r24
    12fe:	d0 92 1c 12 	sts	0x121C, r13
    1302:	90 93 22 12 	sts	0x1222, r25
    1306:	80 93 21 12 	sts	0x1221, r24
    130a:	a0 ec       	ldi	r26, 0xC0	; 192
    130c:	b4 e1       	ldi	r27, 0x14	; 20
    130e:	b0 93 24 12 	sts	0x1224, r27
    1312:	a0 93 23 12 	sts	0x1223, r26
    1316:	90 93 26 12 	sts	0x1226, r25
    131a:	80 93 25 12 	sts	0x1225, r24
    131e:	c0 e7       	ldi	r28, 0x70	; 112
    1320:	df e0       	ldi	r29, 0x0F	; 15
    1322:	d0 93 28 12 	sts	0x1228, r29
    1326:	c0 93 27 12 	sts	0x1227, r28
    132a:	f0 92 2d 12 	sts	0x122D, r15
    132e:	90 93 33 12 	sts	0x1233, r25
    1332:	80 93 32 12 	sts	0x1232, r24
    1336:	90 93 35 12 	sts	0x1235, r25
    133a:	80 93 34 12 	sts	0x1234, r24
    133e:	90 93 39 12 	sts	0x1239, r25
    1342:	80 93 38 12 	sts	0x1238, r24
    1346:	90 93 37 12 	sts	0x1237, r25
    134a:	80 93 36 12 	sts	0x1236, r24
    134e:	f0 92 3e 12 	sts	0x123E, r15
    1352:	90 93 44 12 	sts	0x1244, r25
    1356:	80 93 43 12 	sts	0x1243, r24
    135a:	90 93 46 12 	sts	0x1246, r25
    135e:	80 93 45 12 	sts	0x1245, r24
    1362:	90 93 4a 12 	sts	0x124A, r25
    1366:	80 93 49 12 	sts	0x1249, r24
    136a:	90 93 48 12 	sts	0x1248, r25
    136e:	80 93 47 12 	sts	0x1247, r24
    1372:	e0 92 4f 12 	sts	0x124F, r14
    1376:	70 93 55 12 	sts	0x1255, r23
    137a:	60 93 54 12 	sts	0x1254, r22
    137e:	cf e9       	ldi	r28, 0x9F	; 159
    1380:	d3 e1       	ldi	r29, 0x13	; 19
    1382:	d0 93 57 12 	sts	0x1257, r29
    1386:	c0 93 56 12 	sts	0x1256, r28
    138a:	90 93 59 12 	sts	0x1259, r25
    138e:	80 93 58 12 	sts	0x1258, r24
    1392:	10 93 5b 12 	sts	0x125B, r17
    1396:	00 93 5a 12 	sts	0x125A, r16
    139a:	c0 92 60 12 	sts	0x1260, r12
    139e:	30 93 66 12 	sts	0x1266, r19
    13a2:	20 93 65 12 	sts	0x1265, r18
    13a6:	90 93 68 12 	sts	0x1268, r25
    13aa:	80 93 67 12 	sts	0x1267, r24
    13ae:	50 93 6a 12 	sts	0x126A, r21
    13b2:	40 93 69 12 	sts	0x1269, r20
    13b6:	f0 93 6c 12 	sts	0x126C, r31
    13ba:	e0 93 6b 12 	sts	0x126B, r30
    13be:	e0 92 71 12 	sts	0x1271, r14
    13c2:	90 93 77 12 	sts	0x1277, r25
    13c6:	80 93 76 12 	sts	0x1276, r24
    13ca:	e1 ec       	ldi	r30, 0xC1	; 193
    13cc:	f3 e1       	ldi	r31, 0x13	; 19
    13ce:	f0 93 79 12 	sts	0x1279, r31
    13d2:	e0 93 78 12 	sts	0x1278, r30
    13d6:	70 93 7b 12 	sts	0x127B, r23
    13da:	60 93 7a 12 	sts	0x127A, r22
    13de:	90 92 7d 12 	sts	0x127D, r9
    13e2:	80 92 7c 12 	sts	0x127C, r8
    13e6:	f0 92 82 12 	sts	0x1282, r15
    13ea:	90 93 88 12 	sts	0x1288, r25
    13ee:	80 93 87 12 	sts	0x1287, r24
    13f2:	90 93 8a 12 	sts	0x128A, r25
    13f6:	80 93 89 12 	sts	0x1289, r24
    13fa:	90 93 8e 12 	sts	0x128E, r25
    13fe:	80 93 8d 12 	sts	0x128D, r24
    1402:	90 93 8c 12 	sts	0x128C, r25
    1406:	80 93 8b 12 	sts	0x128B, r24
    140a:	f0 92 93 12 	sts	0x1293, r15
    140e:	90 93 99 12 	sts	0x1299, r25
    1412:	80 93 98 12 	sts	0x1298, r24
    1416:	90 93 9b 12 	sts	0x129B, r25
    141a:	80 93 9a 12 	sts	0x129A, r24
    141e:	90 93 9f 12 	sts	0x129F, r25
    1422:	80 93 9e 12 	sts	0x129E, r24
    1426:	90 93 9d 12 	sts	0x129D, r25
    142a:	80 93 9c 12 	sts	0x129C, r24
    142e:	d0 92 a4 12 	sts	0x12A4, r13
    1432:	90 93 aa 12 	sts	0x12AA, r25
    1436:	80 93 a9 12 	sts	0x12A9, r24
    143a:	68 e4       	ldi	r22, 0x48	; 72
    143c:	75 e1       	ldi	r23, 0x15	; 21
    143e:	70 93 ac 12 	sts	0x12AC, r23
    1442:	60 93 ab 12 	sts	0x12AB, r22
    1446:	90 93 ae 12 	sts	0x12AE, r25
    144a:	80 93 ad 12 	sts	0x12AD, r24
    144e:	70 92 b0 12 	sts	0x12B0, r7
    1452:	60 92 af 12 	sts	0x12AF, r6
    1456:	f0 92 70 13 	sts	0x1370, r15
    145a:	90 93 76 13 	sts	0x1376, r25
    145e:	80 93 75 13 	sts	0x1375, r24
    1462:	90 93 78 13 	sts	0x1378, r25
    1466:	80 93 77 13 	sts	0x1377, r24
    146a:	90 93 7c 13 	sts	0x137C, r25
    146e:	80 93 7b 13 	sts	0x137B, r24
    1472:	90 93 7a 13 	sts	0x137A, r25
    1476:	80 93 79 13 	sts	0x1379, r24
    147a:	e0 92 81 13 	sts	0x1381, r14
    147e:	6e e8       	ldi	r22, 0x8E	; 142
    1480:	73 e1       	ldi	r23, 0x13	; 19
    1482:	70 93 87 13 	sts	0x1387, r23
    1486:	60 93 86 13 	sts	0x1386, r22
    148a:	90 93 89 13 	sts	0x1389, r25
    148e:	80 93 88 13 	sts	0x1388, r24
    1492:	90 93 8b 13 	sts	0x138B, r25
    1496:	80 93 8a 13 	sts	0x138A, r24
    149a:	50 92 8d 13 	sts	0x138D, r5
    149e:	40 92 8c 13 	sts	0x138C, r4
    14a2:	e0 92 92 13 	sts	0x1392, r14
    14a6:	d0 93 98 13 	sts	0x1398, r29
    14aa:	c0 93 97 13 	sts	0x1397, r28
    14ae:	c6 e3       	ldi	r28, 0x36	; 54
    14b0:	d6 e1       	ldi	r29, 0x16	; 22
    14b2:	d0 93 9a 13 	sts	0x139A, r29
    14b6:	c0 93 99 13 	sts	0x1399, r28
    14ba:	30 92 9c 13 	sts	0x139C, r3
    14be:	20 92 9b 13 	sts	0x139B, r2
    14c2:	90 93 9e 13 	sts	0x139E, r25
    14c6:	80 93 9d 13 	sts	0x139D, r24
    14ca:	e0 92 a3 13 	sts	0x13A3, r14
    14ce:	90 93 a9 13 	sts	0x13A9, r25
    14d2:	80 93 a8 13 	sts	0x13A8, r24
    14d6:	90 93 ab 13 	sts	0x13AB, r25
    14da:	80 93 aa 13 	sts	0x13AA, r24
    14de:	70 93 ad 13 	sts	0x13AD, r23
    14e2:	60 93 ac 13 	sts	0x13AC, r22
    14e6:	50 93 af 13 	sts	0x13AF, r21
    14ea:	40 93 ae 13 	sts	0x13AE, r20
    14ee:	f0 92 b4 13 	sts	0x13B4, r15
    14f2:	90 93 ba 13 	sts	0x13BA, r25
    14f6:	80 93 b9 13 	sts	0x13B9, r24
    14fa:	90 93 bc 13 	sts	0x13BC, r25
    14fe:	80 93 bb 13 	sts	0x13BB, r24
    1502:	90 93 c0 13 	sts	0x13C0, r25
    1506:	80 93 bf 13 	sts	0x13BF, r24
    150a:	90 93 be 13 	sts	0x13BE, r25
    150e:	80 93 bd 13 	sts	0x13BD, r24
    1512:	e0 92 c5 13 	sts	0x13C5, r14
    1516:	42 ed       	ldi	r20, 0xD2	; 210
    1518:	53 e1       	ldi	r21, 0x13	; 19
    151a:	50 93 cb 13 	sts	0x13CB, r21
    151e:	40 93 ca 13 	sts	0x13CA, r20
    1522:	90 93 cd 13 	sts	0x13CD, r25
    1526:	80 93 cc 13 	sts	0x13CC, r24
    152a:	90 93 cf 13 	sts	0x13CF, r25
    152e:	80 93 ce 13 	sts	0x13CE, r24
    1532:	30 93 d1 13 	sts	0x13D1, r19
    1536:	20 93 d0 13 	sts	0x13D0, r18
    153a:	e0 92 d6 13 	sts	0x13D6, r14
    153e:	b0 92 dc 13 	sts	0x13DC, r11
    1542:	a0 92 db 13 	sts	0x13DB, r10
    1546:	2a e7       	ldi	r18, 0x7A	; 122
    1548:	36 e1       	ldi	r19, 0x16	; 22
    154a:	30 93 de 13 	sts	0x13DE, r19
    154e:	20 93 dd 13 	sts	0x13DD, r18
    1552:	f0 93 e0 13 	sts	0x13E0, r31
    1556:	e0 93 df 13 	sts	0x13DF, r30
    155a:	90 93 e2 13 	sts	0x13E2, r25
    155e:	80 93 e1 13 	sts	0x13E1, r24
    1562:	e0 92 e7 13 	sts	0x13E7, r14
    1566:	90 93 ed 13 	sts	0x13ED, r25
    156a:	80 93 ec 13 	sts	0x13EC, r24
    156e:	90 93 ef 13 	sts	0x13EF, r25
    1572:	80 93 ee 13 	sts	0x13EE, r24
    1576:	50 93 f1 13 	sts	0x13F1, r21
    157a:	40 93 f0 13 	sts	0x13F0, r20
    157e:	0f 2e       	mov	r0, r31
    1580:	fb e3       	ldi	r31, 0x3B	; 59
    1582:	af 2e       	mov	r10, r31
    1584:	f1 e1       	ldi	r31, 0x11	; 17
    1586:	bf 2e       	mov	r11, r31
    1588:	f0 2d       	mov	r31, r0
    158a:	b0 92 f3 13 	sts	0x13F3, r11
    158e:	a0 92 f2 13 	sts	0x13F2, r10
    1592:	f0 92 f8 13 	sts	0x13F8, r15
    1596:	90 93 fe 13 	sts	0x13FE, r25
    159a:	80 93 fd 13 	sts	0x13FD, r24
    159e:	90 93 00 14 	sts	0x1400, r25
    15a2:	80 93 ff 13 	sts	0x13FF, r24
    15a6:	90 93 04 14 	sts	0x1404, r25
    15aa:	80 93 03 14 	sts	0x1403, r24
    15ae:	90 93 02 14 	sts	0x1402, r25
    15b2:	80 93 01 14 	sts	0x1401, r24
    15b6:	d0 92 c4 14 	sts	0x14C4, r13
    15ba:	90 93 ca 14 	sts	0x14CA, r25
    15be:	80 93 c9 14 	sts	0x14C9, r24
    15c2:	e4 e1       	ldi	r30, 0x14	; 20
    15c4:	f6 e1       	ldi	r31, 0x16	; 22
    15c6:	f0 93 cc 14 	sts	0x14CC, r31
    15ca:	e0 93 cb 14 	sts	0x14CB, r30
    15ce:	90 93 ce 14 	sts	0x14CE, r25
    15d2:	80 93 cd 14 	sts	0x14CD, r24
    15d6:	08 e1       	ldi	r16, 0x18	; 24
    15d8:	12 e1       	ldi	r17, 0x12	; 18
    15da:	10 93 d0 14 	sts	0x14D0, r17
    15de:	00 93 cf 14 	sts	0x14CF, r16
    15e2:	f0 92 d5 14 	sts	0x14D5, r15
    15e6:	90 93 db 14 	sts	0x14DB, r25
    15ea:	80 93 da 14 	sts	0x14DA, r24
    15ee:	90 93 dd 14 	sts	0x14DD, r25
    15f2:	80 93 dc 14 	sts	0x14DC, r24
    15f6:	90 93 e1 14 	sts	0x14E1, r25
    15fa:	80 93 e0 14 	sts	0x14E0, r24
    15fe:	90 93 df 14 	sts	0x14DF, r25
    1602:	80 93 de 14 	sts	0x14DE, r24
    1606:	f0 92 e6 14 	sts	0x14E6, r15
    160a:	90 93 ec 14 	sts	0x14EC, r25
    160e:	80 93 eb 14 	sts	0x14EB, r24
    1612:	90 93 ee 14 	sts	0x14EE, r25
    1616:	80 93 ed 14 	sts	0x14ED, r24
    161a:	90 93 f2 14 	sts	0x14F2, r25
    161e:	80 93 f1 14 	sts	0x14F1, r24
    1622:	90 93 f0 14 	sts	0x14F0, r25
    1626:	80 93 ef 14 	sts	0x14EF, r24
    162a:	f0 92 f7 14 	sts	0x14F7, r15
    162e:	90 93 fd 14 	sts	0x14FD, r25
    1632:	80 93 fc 14 	sts	0x14FC, r24
    1636:	90 93 ff 14 	sts	0x14FF, r25
    163a:	80 93 fe 14 	sts	0x14FE, r24
    163e:	90 93 03 15 	sts	0x1503, r25
    1642:	80 93 02 15 	sts	0x1502, r24
    1646:	90 93 01 15 	sts	0x1501, r25
    164a:	80 93 00 15 	sts	0x1500, r24
    164e:	f0 92 08 15 	sts	0x1508, r15
    1652:	90 93 0e 15 	sts	0x150E, r25
    1656:	80 93 0d 15 	sts	0x150D, r24
    165a:	90 93 10 15 	sts	0x1510, r25
    165e:	80 93 0f 15 	sts	0x150F, r24
    1662:	90 93 14 15 	sts	0x1514, r25
    1666:	80 93 13 15 	sts	0x1513, r24
    166a:	90 93 12 15 	sts	0x1512, r25
    166e:	80 93 11 15 	sts	0x1511, r24
    1672:	f0 92 19 15 	sts	0x1519, r15
    1676:	90 93 1f 15 	sts	0x151F, r25
    167a:	80 93 1e 15 	sts	0x151E, r24
    167e:	90 93 21 15 	sts	0x1521, r25
    1682:	80 93 20 15 	sts	0x1520, r24
    1686:	90 93 25 15 	sts	0x1525, r25
    168a:	80 93 24 15 	sts	0x1524, r24
    168e:	90 93 23 15 	sts	0x1523, r25
    1692:	80 93 22 15 	sts	0x1522, r24
    1696:	f0 92 2a 15 	sts	0x152A, r15
    169a:	90 93 30 15 	sts	0x1530, r25
    169e:	80 93 2f 15 	sts	0x152F, r24
    16a2:	90 93 32 15 	sts	0x1532, r25
    16a6:	80 93 31 15 	sts	0x1531, r24
    16aa:	90 93 36 15 	sts	0x1536, r25
    16ae:	80 93 35 15 	sts	0x1535, r24
    16b2:	90 93 34 15 	sts	0x1534, r25
    16b6:	80 93 33 15 	sts	0x1533, r24
    16ba:	f0 92 3b 15 	sts	0x153B, r15
    16be:	90 93 41 15 	sts	0x1541, r25
    16c2:	80 93 40 15 	sts	0x1540, r24
    16c6:	90 93 43 15 	sts	0x1543, r25
    16ca:	80 93 42 15 	sts	0x1542, r24
    16ce:	90 93 47 15 	sts	0x1547, r25
    16d2:	80 93 46 15 	sts	0x1546, r24
    16d6:	90 93 45 15 	sts	0x1545, r25
    16da:	80 93 44 15 	sts	0x1544, r24
    16de:	d0 92 4c 15 	sts	0x154C, r13
    16e2:	90 93 52 15 	sts	0x1552, r25
    16e6:	80 93 51 15 	sts	0x1551, r24
    16ea:	0c e9       	ldi	r16, 0x9C	; 156
    16ec:	16 e1       	ldi	r17, 0x16	; 22
    16ee:	10 93 54 15 	sts	0x1554, r17
    16f2:	00 93 53 15 	sts	0x1553, r16
    16f6:	90 93 56 15 	sts	0x1556, r25
    16fa:	80 93 55 15 	sts	0x1555, r24
    16fe:	0f 2e       	mov	r0, r31
    1700:	f0 ea       	ldi	r31, 0xA0	; 160
    1702:	8f 2e       	mov	r8, r31
    1704:	f2 e1       	ldi	r31, 0x12	; 18
    1706:	9f 2e       	mov	r9, r31
    1708:	f0 2d       	mov	r31, r0
    170a:	90 92 58 15 	sts	0x1558, r9
    170e:	80 92 57 15 	sts	0x1557, r8
    1712:	0f 2e       	mov	r0, r31
    1714:	f3 e6       	ldi	r31, 0x63	; 99
    1716:	ef 2e       	mov	r14, r31
    1718:	f0 2d       	mov	r31, r0
    171a:	e0 92 18 16 	sts	0x1618, r14
    171e:	d0 93 1e 16 	sts	0x161E, r29
    1722:	c0 93 1d 16 	sts	0x161D, r28
    1726:	90 93 20 16 	sts	0x1620, r25
    172a:	80 93 1f 16 	sts	0x161F, r24
    172e:	90 93 22 16 	sts	0x1622, r25
    1732:	80 93 21 16 	sts	0x1621, r24
    1736:	b0 93 24 16 	sts	0x1624, r27
    173a:	a0 93 23 16 	sts	0x1623, r26
    173e:	f0 92 29 16 	sts	0x1629, r15
    1742:	90 93 2f 16 	sts	0x162F, r25
    1746:	80 93 2e 16 	sts	0x162E, r24
    174a:	90 93 31 16 	sts	0x1631, r25
    174e:	80 93 30 16 	sts	0x1630, r24
    1752:	90 93 35 16 	sts	0x1635, r25
    1756:	80 93 34 16 	sts	0x1634, r24
    175a:	90 93 33 16 	sts	0x1633, r25
    175e:	80 93 32 16 	sts	0x1632, r24
    1762:	a6 e7       	ldi	r26, 0x76	; 118
    1764:	a0 93 3a 16 	sts	0x163A, r26
    1768:	30 93 40 16 	sts	0x1640, r19
    176c:	20 93 3f 16 	sts	0x163F, r18
    1770:	90 93 42 16 	sts	0x1642, r25
    1774:	80 93 41 16 	sts	0x1641, r24
    1778:	f0 93 44 16 	sts	0x1644, r31
    177c:	e0 93 43 16 	sts	0x1643, r30
    1780:	70 93 46 16 	sts	0x1646, r23
    1784:	60 93 45 16 	sts	0x1645, r22
    1788:	f0 92 4b 16 	sts	0x164B, r15
    178c:	90 93 51 16 	sts	0x1651, r25
    1790:	80 93 50 16 	sts	0x1650, r24
    1794:	90 93 53 16 	sts	0x1653, r25
    1798:	80 93 52 16 	sts	0x1652, r24
    179c:	90 93 57 16 	sts	0x1657, r25
    17a0:	80 93 56 16 	sts	0x1656, r24
    17a4:	90 93 55 16 	sts	0x1655, r25
    17a8:	80 93 54 16 	sts	0x1654, r24
    17ac:	f0 92 5c 16 	sts	0x165C, r15
    17b0:	90 93 62 16 	sts	0x1662, r25
    17b4:	80 93 61 16 	sts	0x1661, r24
    17b8:	90 93 64 16 	sts	0x1664, r25
    17bc:	80 93 63 16 	sts	0x1663, r24
    17c0:	90 93 68 16 	sts	0x1668, r25
    17c4:	80 93 67 16 	sts	0x1667, r24
    17c8:	90 93 66 16 	sts	0x1666, r25
    17cc:	80 93 65 16 	sts	0x1665, r24
    17d0:	f0 92 6d 16 	sts	0x166D, r15
    17d4:	90 93 73 16 	sts	0x1673, r25
    17d8:	80 93 72 16 	sts	0x1672, r24
    17dc:	90 93 75 16 	sts	0x1675, r25
    17e0:	80 93 74 16 	sts	0x1674, r24
    17e4:	90 93 79 16 	sts	0x1679, r25
    17e8:	80 93 78 16 	sts	0x1678, r24
    17ec:	90 93 77 16 	sts	0x1677, r25
    17f0:	80 93 76 16 	sts	0x1676, r24
    17f4:	a0 93 7e 16 	sts	0x167E, r26
    17f8:	10 93 84 16 	sts	0x1684, r17
    17fc:	00 93 83 16 	sts	0x1683, r16
    1800:	90 93 86 16 	sts	0x1686, r25
    1804:	80 93 85 16 	sts	0x1685, r24
    1808:	d0 93 88 16 	sts	0x1688, r29
    180c:	c0 93 87 16 	sts	0x1687, r28
    1810:	50 93 8a 16 	sts	0x168A, r21
    1814:	40 93 89 16 	sts	0x1689, r20
    1818:	f0 92 8f 16 	sts	0x168F, r15
    181c:	90 93 95 16 	sts	0x1695, r25
    1820:	80 93 94 16 	sts	0x1694, r24
    1824:	90 93 97 16 	sts	0x1697, r25
    1828:	80 93 96 16 	sts	0x1696, r24
    182c:	90 93 9b 16 	sts	0x169B, r25
    1830:	80 93 9a 16 	sts	0x169A, r24
    1834:	90 93 99 16 	sts	0x1699, r25
    1838:	80 93 98 16 	sts	0x1698, r24
    183c:	23 e6       	ldi	r18, 0x63	; 99
    183e:	20 93 a0 16 	sts	0x16A0, r18
    1842:	90 93 a6 16 	sts	0x16A6, r25
    1846:	80 93 a5 16 	sts	0x16A5, r24
    184a:	90 93 a8 16 	sts	0x16A8, r25
    184e:	80 93 a7 16 	sts	0x16A7, r24
    1852:	8a e7       	ldi	r24, 0x7A	; 122
    1854:	96 e1       	ldi	r25, 0x16	; 22
    1856:	90 93 aa 16 	sts	0x16AA, r25
    185a:	80 93 a9 16 	sts	0x16A9, r24
    185e:	88 e4       	ldi	r24, 0x48	; 72
    1860:	95 e1       	ldi	r25, 0x15	; 21
    1862:	90 93 ac 16 	sts	0x16AC, r25
    1866:	80 93 ab 16 	sts	0x16AB, r24
    186a:	10 92 82 03 	sts	0x0382, r1
    186e:	10 92 81 03 	sts	0x0381, r1
    1872:	10 92 84 03 	sts	0x0384, r1
    1876:	10 92 83 03 	sts	0x0383, r1
    187a:	10 92 93 03 	sts	0x0393, r1
    187e:	10 92 92 03 	sts	0x0392, r1
    1882:	01 e0       	ldi	r16, 0x01	; 1
    1884:	10 e0       	ldi	r17, 0x00	; 0
    1886:	10 93 95 03 	sts	0x0395, r17
    188a:	00 93 94 03 	sts	0x0394, r16
    188e:	10 92 a4 03 	sts	0x03A4, r1
    1892:	10 92 a3 03 	sts	0x03A3, r1
    1896:	c2 e0       	ldi	r28, 0x02	; 2
    1898:	d0 e0       	ldi	r29, 0x00	; 0
    189a:	d0 93 a6 03 	sts	0x03A6, r29
    189e:	c0 93 a5 03 	sts	0x03A5, r28
    18a2:	10 92 b5 03 	sts	0x03B5, r1
    18a6:	10 92 b4 03 	sts	0x03B4, r1
    18aa:	a3 e0       	ldi	r26, 0x03	; 3
    18ac:	b0 e0       	ldi	r27, 0x00	; 0
    18ae:	b0 93 b7 03 	sts	0x03B7, r27
    18b2:	a0 93 b6 03 	sts	0x03B6, r26
    18b6:	10 92 c6 03 	sts	0x03C6, r1
    18ba:	10 92 c5 03 	sts	0x03C5, r1
    18be:	e4 e0       	ldi	r30, 0x04	; 4
    18c0:	f0 e0       	ldi	r31, 0x00	; 0
    18c2:	f0 93 c8 03 	sts	0x03C8, r31
    18c6:	e0 93 c7 03 	sts	0x03C7, r30
    18ca:	10 92 d7 03 	sts	0x03D7, r1
    18ce:	10 92 d6 03 	sts	0x03D6, r1
    18d2:	65 e0       	ldi	r22, 0x05	; 5
    18d4:	70 e0       	ldi	r23, 0x00	; 0
    18d6:	70 93 d9 03 	sts	0x03D9, r23
    18da:	60 93 d8 03 	sts	0x03D8, r22
    18de:	10 92 e8 03 	sts	0x03E8, r1
    18e2:	10 92 e7 03 	sts	0x03E7, r1
    18e6:	46 e0       	ldi	r20, 0x06	; 6
    18e8:	50 e0       	ldi	r21, 0x00	; 0
    18ea:	50 93 ea 03 	sts	0x03EA, r21
    18ee:	40 93 e9 03 	sts	0x03E9, r20
    18f2:	10 92 f9 03 	sts	0x03F9, r1
    18f6:	10 92 f8 03 	sts	0x03F8, r1
    18fa:	27 e0       	ldi	r18, 0x07	; 7
    18fc:	30 e0       	ldi	r19, 0x00	; 0
    18fe:	30 93 fb 03 	sts	0x03FB, r19
    1902:	20 93 fa 03 	sts	0x03FA, r18
    1906:	10 92 0a 04 	sts	0x040A, r1
    190a:	10 92 09 04 	sts	0x0409, r1
    190e:	88 e0       	ldi	r24, 0x08	; 8
    1910:	90 e0       	ldi	r25, 0x00	; 0
    1912:	90 93 0c 04 	sts	0x040C, r25
    1916:	80 93 0b 04 	sts	0x040B, r24
    191a:	10 93 d6 04 	sts	0x04D6, r17
    191e:	00 93 d5 04 	sts	0x04D5, r16
    1922:	10 92 d8 04 	sts	0x04D8, r1
    1926:	10 92 d7 04 	sts	0x04D7, r1
    192a:	10 93 e7 04 	sts	0x04E7, r17
    192e:	00 93 e6 04 	sts	0x04E6, r16
    1932:	10 93 e9 04 	sts	0x04E9, r17
    1936:	00 93 e8 04 	sts	0x04E8, r16
    193a:	10 93 f8 04 	sts	0x04F8, r17
    193e:	00 93 f7 04 	sts	0x04F7, r16
    1942:	d0 93 fa 04 	sts	0x04FA, r29
    1946:	c0 93 f9 04 	sts	0x04F9, r28
    194a:	10 93 09 05 	sts	0x0509, r17
    194e:	00 93 08 05 	sts	0x0508, r16
    1952:	b0 93 0b 05 	sts	0x050B, r27
    1956:	a0 93 0a 05 	sts	0x050A, r26
    195a:	10 93 1a 05 	sts	0x051A, r17
    195e:	00 93 19 05 	sts	0x0519, r16
    1962:	f0 93 1c 05 	sts	0x051C, r31
    1966:	e0 93 1b 05 	sts	0x051B, r30
    196a:	10 93 2b 05 	sts	0x052B, r17
    196e:	00 93 2a 05 	sts	0x052A, r16
    1972:	70 93 2d 05 	sts	0x052D, r23
    1976:	60 93 2c 05 	sts	0x052C, r22
    197a:	10 93 3c 05 	sts	0x053C, r17
    197e:	00 93 3b 05 	sts	0x053B, r16
    1982:	50 93 3e 05 	sts	0x053E, r21
    1986:	40 93 3d 05 	sts	0x053D, r20
    198a:	10 93 4d 05 	sts	0x054D, r17
    198e:	00 93 4c 05 	sts	0x054C, r16
    1992:	30 93 4f 05 	sts	0x054F, r19
    1996:	20 93 4e 05 	sts	0x054E, r18
    199a:	10 93 5e 05 	sts	0x055E, r17
    199e:	00 93 5d 05 	sts	0x055D, r16
    19a2:	90 93 60 05 	sts	0x0560, r25
    19a6:	80 93 5f 05 	sts	0x055F, r24
    19aa:	d0 93 2a 06 	sts	0x062A, r29
    19ae:	c0 93 29 06 	sts	0x0629, r28
    19b2:	10 92 2c 06 	sts	0x062C, r1
    19b6:	10 92 2b 06 	sts	0x062B, r1
    19ba:	d0 93 3b 06 	sts	0x063B, r29
    19be:	c0 93 3a 06 	sts	0x063A, r28
    19c2:	10 93 3d 06 	sts	0x063D, r17
    19c6:	00 93 3c 06 	sts	0x063C, r16
    19ca:	d0 93 4c 06 	sts	0x064C, r29
    19ce:	c0 93 4b 06 	sts	0x064B, r28
    19d2:	d0 93 4e 06 	sts	0x064E, r29
    19d6:	c0 93 4d 06 	sts	0x064D, r28
    19da:	d0 93 5d 06 	sts	0x065D, r29
    19de:	c0 93 5c 06 	sts	0x065C, r28
    19e2:	b0 93 5f 06 	sts	0x065F, r27
    19e6:	a0 93 5e 06 	sts	0x065E, r26
    19ea:	d0 93 6e 06 	sts	0x066E, r29
    19ee:	c0 93 6d 06 	sts	0x066D, r28
    19f2:	f0 93 70 06 	sts	0x0670, r31
    19f6:	e0 93 6f 06 	sts	0x066F, r30
    19fa:	d0 93 7f 06 	sts	0x067F, r29
    19fe:	c0 93 7e 06 	sts	0x067E, r28
    1a02:	70 93 81 06 	sts	0x0681, r23
    1a06:	60 93 80 06 	sts	0x0680, r22
    1a0a:	d0 93 90 06 	sts	0x0690, r29
    1a0e:	c0 93 8f 06 	sts	0x068F, r28
    1a12:	50 93 92 06 	sts	0x0692, r21
    1a16:	40 93 91 06 	sts	0x0691, r20
    1a1a:	d0 93 a1 06 	sts	0x06A1, r29
    1a1e:	c0 93 a0 06 	sts	0x06A0, r28
    1a22:	30 93 a3 06 	sts	0x06A3, r19
    1a26:	20 93 a2 06 	sts	0x06A2, r18
    1a2a:	d0 93 b2 06 	sts	0x06B2, r29
    1a2e:	c0 93 b1 06 	sts	0x06B1, r28
    1a32:	90 93 b4 06 	sts	0x06B4, r25
    1a36:	80 93 b3 06 	sts	0x06B3, r24
    1a3a:	b0 93 7e 07 	sts	0x077E, r27
    1a3e:	a0 93 7d 07 	sts	0x077D, r26
    1a42:	10 92 80 07 	sts	0x0780, r1
    1a46:	10 92 7f 07 	sts	0x077F, r1
    1a4a:	b0 93 8f 07 	sts	0x078F, r27
    1a4e:	a0 93 8e 07 	sts	0x078E, r26
    1a52:	10 93 91 07 	sts	0x0791, r17
    1a56:	00 93 90 07 	sts	0x0790, r16
    1a5a:	b0 93 a0 07 	sts	0x07A0, r27
    1a5e:	a0 93 9f 07 	sts	0x079F, r26
    1a62:	d0 93 a2 07 	sts	0x07A2, r29
    1a66:	c0 93 a1 07 	sts	0x07A1, r28
    1a6a:	b0 93 b1 07 	sts	0x07B1, r27
    1a6e:	a0 93 b0 07 	sts	0x07B0, r26
    1a72:	b0 93 b3 07 	sts	0x07B3, r27
    1a76:	a0 93 b2 07 	sts	0x07B2, r26
    1a7a:	b0 93 c2 07 	sts	0x07C2, r27
    1a7e:	a0 93 c1 07 	sts	0x07C1, r26
    1a82:	f0 93 c4 07 	sts	0x07C4, r31
    1a86:	e0 93 c3 07 	sts	0x07C3, r30
    1a8a:	b0 93 d3 07 	sts	0x07D3, r27
    1a8e:	a0 93 d2 07 	sts	0x07D2, r26
    1a92:	70 93 d5 07 	sts	0x07D5, r23
    1a96:	60 93 d4 07 	sts	0x07D4, r22
    1a9a:	b0 93 e4 07 	sts	0x07E4, r27
    1a9e:	a0 93 e3 07 	sts	0x07E3, r26
    1aa2:	50 93 e6 07 	sts	0x07E6, r21
    1aa6:	40 93 e5 07 	sts	0x07E5, r20
    1aaa:	b0 93 f5 07 	sts	0x07F5, r27
    1aae:	a0 93 f4 07 	sts	0x07F4, r26
    1ab2:	30 93 f7 07 	sts	0x07F7, r19
    1ab6:	20 93 f6 07 	sts	0x07F6, r18
    1aba:	b0 93 06 08 	sts	0x0806, r27
    1abe:	a0 93 05 08 	sts	0x0805, r26
    1ac2:	90 93 08 08 	sts	0x0808, r25
    1ac6:	80 93 07 08 	sts	0x0807, r24
    1aca:	f0 93 d2 08 	sts	0x08D2, r31
    1ace:	e0 93 d1 08 	sts	0x08D1, r30
    1ad2:	10 92 d4 08 	sts	0x08D4, r1
    1ad6:	10 92 d3 08 	sts	0x08D3, r1
    1ada:	f0 93 e3 08 	sts	0x08E3, r31
    1ade:	e0 93 e2 08 	sts	0x08E2, r30
    1ae2:	10 93 e5 08 	sts	0x08E5, r17
    1ae6:	00 93 e4 08 	sts	0x08E4, r16
    1aea:	f0 93 f4 08 	sts	0x08F4, r31
    1aee:	e0 93 f3 08 	sts	0x08F3, r30
    1af2:	d0 93 f6 08 	sts	0x08F6, r29
    1af6:	c0 93 f5 08 	sts	0x08F5, r28
    1afa:	f0 93 05 09 	sts	0x0905, r31
    1afe:	e0 93 04 09 	sts	0x0904, r30
    1b02:	b0 93 07 09 	sts	0x0907, r27
    1b06:	a0 93 06 09 	sts	0x0906, r26
    1b0a:	f0 93 16 09 	sts	0x0916, r31
    1b0e:	e0 93 15 09 	sts	0x0915, r30
    1b12:	f0 93 18 09 	sts	0x0918, r31
    1b16:	e0 93 17 09 	sts	0x0917, r30
    1b1a:	f0 93 27 09 	sts	0x0927, r31
    1b1e:	e0 93 26 09 	sts	0x0926, r30
    1b22:	70 93 29 09 	sts	0x0929, r23
    1b26:	60 93 28 09 	sts	0x0928, r22
    1b2a:	f0 93 38 09 	sts	0x0938, r31
    1b2e:	e0 93 37 09 	sts	0x0937, r30
    1b32:	50 93 3a 09 	sts	0x093A, r21
    1b36:	40 93 39 09 	sts	0x0939, r20
    1b3a:	f0 93 49 09 	sts	0x0949, r31
    1b3e:	e0 93 48 09 	sts	0x0948, r30
    1b42:	30 93 4b 09 	sts	0x094B, r19
    1b46:	20 93 4a 09 	sts	0x094A, r18
    1b4a:	f0 93 5a 09 	sts	0x095A, r31
    1b4e:	e0 93 59 09 	sts	0x0959, r30
    1b52:	90 93 5c 09 	sts	0x095C, r25
    1b56:	80 93 5b 09 	sts	0x095B, r24
    1b5a:	70 93 26 0a 	sts	0x0A26, r23
    1b5e:	60 93 25 0a 	sts	0x0A25, r22
    1b62:	10 92 28 0a 	sts	0x0A28, r1
    1b66:	10 92 27 0a 	sts	0x0A27, r1
    1b6a:	70 93 37 0a 	sts	0x0A37, r23
    1b6e:	60 93 36 0a 	sts	0x0A36, r22
    1b72:	10 93 39 0a 	sts	0x0A39, r17
    1b76:	00 93 38 0a 	sts	0x0A38, r16
    1b7a:	70 93 48 0a 	sts	0x0A48, r23
    1b7e:	60 93 47 0a 	sts	0x0A47, r22
    1b82:	d0 93 4a 0a 	sts	0x0A4A, r29
    1b86:	c0 93 49 0a 	sts	0x0A49, r28
    1b8a:	70 93 59 0a 	sts	0x0A59, r23
    1b8e:	60 93 58 0a 	sts	0x0A58, r22
    1b92:	b0 93 5b 0a 	sts	0x0A5B, r27
    1b96:	a0 93 5a 0a 	sts	0x0A5A, r26
    1b9a:	70 93 6a 0a 	sts	0x0A6A, r23
    1b9e:	60 93 69 0a 	sts	0x0A69, r22
    1ba2:	f0 93 6c 0a 	sts	0x0A6C, r31
    1ba6:	e0 93 6b 0a 	sts	0x0A6B, r30
    1baa:	70 93 7b 0a 	sts	0x0A7B, r23
    1bae:	60 93 7a 0a 	sts	0x0A7A, r22
    1bb2:	70 93 7d 0a 	sts	0x0A7D, r23
    1bb6:	60 93 7c 0a 	sts	0x0A7C, r22
    1bba:	70 93 8c 0a 	sts	0x0A8C, r23
    1bbe:	60 93 8b 0a 	sts	0x0A8B, r22
    1bc2:	50 93 8e 0a 	sts	0x0A8E, r21
    1bc6:	40 93 8d 0a 	sts	0x0A8D, r20
    1bca:	70 93 9d 0a 	sts	0x0A9D, r23
    1bce:	60 93 9c 0a 	sts	0x0A9C, r22
    1bd2:	30 93 9f 0a 	sts	0x0A9F, r19
    1bd6:	20 93 9e 0a 	sts	0x0A9E, r18
    1bda:	70 93 ae 0a 	sts	0x0AAE, r23
    1bde:	60 93 ad 0a 	sts	0x0AAD, r22
    1be2:	90 93 b0 0a 	sts	0x0AB0, r25
    1be6:	80 93 af 0a 	sts	0x0AAF, r24
    1bea:	50 93 7a 0b 	sts	0x0B7A, r21
    1bee:	40 93 79 0b 	sts	0x0B79, r20
    1bf2:	10 92 7c 0b 	sts	0x0B7C, r1
    1bf6:	10 92 7b 0b 	sts	0x0B7B, r1
    1bfa:	50 93 8b 0b 	sts	0x0B8B, r21
    1bfe:	40 93 8a 0b 	sts	0x0B8A, r20
    1c02:	10 93 8d 0b 	sts	0x0B8D, r17
    1c06:	00 93 8c 0b 	sts	0x0B8C, r16
    1c0a:	50 93 9c 0b 	sts	0x0B9C, r21
    1c0e:	40 93 9b 0b 	sts	0x0B9B, r20
    1c12:	d0 93 9e 0b 	sts	0x0B9E, r29
    1c16:	c0 93 9d 0b 	sts	0x0B9D, r28
    1c1a:	50 93 ad 0b 	sts	0x0BAD, r21
    1c1e:	40 93 ac 0b 	sts	0x0BAC, r20
    1c22:	b0 93 af 0b 	sts	0x0BAF, r27
    1c26:	a0 93 ae 0b 	sts	0x0BAE, r26
    1c2a:	50 93 be 0b 	sts	0x0BBE, r21
    1c2e:	40 93 bd 0b 	sts	0x0BBD, r20
    1c32:	f0 93 c0 0b 	sts	0x0BC0, r31
    1c36:	e0 93 bf 0b 	sts	0x0BBF, r30
    1c3a:	50 93 cf 0b 	sts	0x0BCF, r21
    1c3e:	40 93 ce 0b 	sts	0x0BCE, r20
    1c42:	70 93 d1 0b 	sts	0x0BD1, r23
    1c46:	60 93 d0 0b 	sts	0x0BD0, r22
    1c4a:	50 93 e0 0b 	sts	0x0BE0, r21
    1c4e:	40 93 df 0b 	sts	0x0BDF, r20
    1c52:	50 93 e2 0b 	sts	0x0BE2, r21
    1c56:	40 93 e1 0b 	sts	0x0BE1, r20
    1c5a:	50 93 f1 0b 	sts	0x0BF1, r21
    1c5e:	40 93 f0 0b 	sts	0x0BF0, r20
    1c62:	30 93 f3 0b 	sts	0x0BF3, r19
    1c66:	20 93 f2 0b 	sts	0x0BF2, r18
    1c6a:	50 93 02 0c 	sts	0x0C02, r21
    1c6e:	40 93 01 0c 	sts	0x0C01, r20
    1c72:	90 93 04 0c 	sts	0x0C04, r25
    1c76:	80 93 03 0c 	sts	0x0C03, r24
    1c7a:	30 93 ce 0c 	sts	0x0CCE, r19
    1c7e:	20 93 cd 0c 	sts	0x0CCD, r18
    1c82:	10 92 d0 0c 	sts	0x0CD0, r1
    1c86:	10 92 cf 0c 	sts	0x0CCF, r1
    1c8a:	30 93 df 0c 	sts	0x0CDF, r19
    1c8e:	20 93 de 0c 	sts	0x0CDE, r18
    1c92:	10 93 e1 0c 	sts	0x0CE1, r17
    1c96:	00 93 e0 0c 	sts	0x0CE0, r16
    1c9a:	30 93 f0 0c 	sts	0x0CF0, r19
    1c9e:	20 93 ef 0c 	sts	0x0CEF, r18
    1ca2:	d0 93 f2 0c 	sts	0x0CF2, r29
    1ca6:	c0 93 f1 0c 	sts	0x0CF1, r28
    1caa:	30 93 01 0d 	sts	0x0D01, r19
    1cae:	20 93 00 0d 	sts	0x0D00, r18
    1cb2:	b0 93 03 0d 	sts	0x0D03, r27
    1cb6:	a0 93 02 0d 	sts	0x0D02, r26
    1cba:	30 93 12 0d 	sts	0x0D12, r19
    1cbe:	20 93 11 0d 	sts	0x0D11, r18
    1cc2:	f0 93 14 0d 	sts	0x0D14, r31
    1cc6:	e0 93 13 0d 	sts	0x0D13, r30
    1cca:	30 93 23 0d 	sts	0x0D23, r19
    1cce:	20 93 22 0d 	sts	0x0D22, r18
    1cd2:	70 93 25 0d 	sts	0x0D25, r23
    1cd6:	60 93 24 0d 	sts	0x0D24, r22
    1cda:	30 93 34 0d 	sts	0x0D34, r19
    1cde:	20 93 33 0d 	sts	0x0D33, r18
    1ce2:	50 93 36 0d 	sts	0x0D36, r21
    1ce6:	40 93 35 0d 	sts	0x0D35, r20
    1cea:	30 93 45 0d 	sts	0x0D45, r19
    1cee:	20 93 44 0d 	sts	0x0D44, r18
    1cf2:	30 93 47 0d 	sts	0x0D47, r19
    1cf6:	20 93 46 0d 	sts	0x0D46, r18
    1cfa:	30 93 56 0d 	sts	0x0D56, r19
    1cfe:	20 93 55 0d 	sts	0x0D55, r18
    1d02:	90 93 58 0d 	sts	0x0D58, r25
    1d06:	80 93 57 0d 	sts	0x0D57, r24
    1d0a:	90 93 22 0e 	sts	0x0E22, r25
    1d0e:	80 93 21 0e 	sts	0x0E21, r24
    1d12:	10 92 24 0e 	sts	0x0E24, r1
    1d16:	10 92 23 0e 	sts	0x0E23, r1
    1d1a:	90 93 33 0e 	sts	0x0E33, r25
    1d1e:	80 93 32 0e 	sts	0x0E32, r24
    1d22:	10 93 35 0e 	sts	0x0E35, r17
    1d26:	00 93 34 0e 	sts	0x0E34, r16
    1d2a:	90 93 44 0e 	sts	0x0E44, r25
    1d2e:	80 93 43 0e 	sts	0x0E43, r24
    1d32:	d0 93 46 0e 	sts	0x0E46, r29
    1d36:	c0 93 45 0e 	sts	0x0E45, r28
    1d3a:	90 93 55 0e 	sts	0x0E55, r25
    1d3e:	80 93 54 0e 	sts	0x0E54, r24
    1d42:	b0 93 57 0e 	sts	0x0E57, r27
    1d46:	a0 93 56 0e 	sts	0x0E56, r26
    1d4a:	90 93 66 0e 	sts	0x0E66, r25
    1d4e:	80 93 65 0e 	sts	0x0E65, r24
    1d52:	f0 93 68 0e 	sts	0x0E68, r31
    1d56:	e0 93 67 0e 	sts	0x0E67, r30
    1d5a:	90 93 77 0e 	sts	0x0E77, r25
    1d5e:	80 93 76 0e 	sts	0x0E76, r24
    1d62:	70 93 79 0e 	sts	0x0E79, r23
    1d66:	60 93 78 0e 	sts	0x0E78, r22
    1d6a:	90 93 88 0e 	sts	0x0E88, r25
    1d6e:	80 93 87 0e 	sts	0x0E87, r24
    1d72:	50 93 8a 0e 	sts	0x0E8A, r21
    1d76:	40 93 89 0e 	sts	0x0E89, r20
    1d7a:	90 93 99 0e 	sts	0x0E99, r25
    1d7e:	80 93 98 0e 	sts	0x0E98, r24
    1d82:	30 93 9b 0e 	sts	0x0E9B, r19
    1d86:	20 93 9a 0e 	sts	0x0E9A, r18
    1d8a:	90 93 aa 0e 	sts	0x0EAA, r25
    1d8e:	80 93 a9 0e 	sts	0x0EA9, r24
    1d92:	90 93 ac 0e 	sts	0x0EAC, r25
    1d96:	80 93 ab 0e 	sts	0x0EAB, r24
    1d9a:	0f 2e       	mov	r0, r31
    1d9c:	f9 e0       	ldi	r31, 0x09	; 9
    1d9e:	ef 2e       	mov	r14, r31
    1da0:	f1 2c       	mov	r15, r1
    1da2:	f0 2d       	mov	r31, r0
    1da4:	f0 92 76 0f 	sts	0x0F76, r15
    1da8:	e0 92 75 0f 	sts	0x0F75, r14
    1dac:	10 92 78 0f 	sts	0x0F78, r1
    1db0:	10 92 77 0f 	sts	0x0F77, r1
    1db4:	f0 92 87 0f 	sts	0x0F87, r15
    1db8:	e0 92 86 0f 	sts	0x0F86, r14
    1dbc:	10 93 89 0f 	sts	0x0F89, r17
    1dc0:	00 93 88 0f 	sts	0x0F88, r16
    1dc4:	f0 92 98 0f 	sts	0x0F98, r15
    1dc8:	e0 92 97 0f 	sts	0x0F97, r14
    1dcc:	d0 93 9a 0f 	sts	0x0F9A, r29
    1dd0:	c0 93 99 0f 	sts	0x0F99, r28
    1dd4:	f0 92 a9 0f 	sts	0x0FA9, r15
    1dd8:	e0 92 a8 0f 	sts	0x0FA8, r14
    1ddc:	b0 93 ab 0f 	sts	0x0FAB, r27
    1de0:	a0 93 aa 0f 	sts	0x0FAA, r26
    1de4:	f0 92 ba 0f 	sts	0x0FBA, r15
    1de8:	e0 92 b9 0f 	sts	0x0FB9, r14
    1dec:	f0 93 bc 0f 	sts	0x0FBC, r31
    1df0:	e0 93 bb 0f 	sts	0x0FBB, r30
    1df4:	f0 92 cb 0f 	sts	0x0FCB, r15
    1df8:	e0 92 ca 0f 	sts	0x0FCA, r14
    1dfc:	70 93 cd 0f 	sts	0x0FCD, r23
    1e00:	60 93 cc 0f 	sts	0x0FCC, r22
    1e04:	f0 92 dc 0f 	sts	0x0FDC, r15
    1e08:	e0 92 db 0f 	sts	0x0FDB, r14
    1e0c:	50 93 de 0f 	sts	0x0FDE, r21
    1e10:	40 93 dd 0f 	sts	0x0FDD, r20
    1e14:	f0 92 ed 0f 	sts	0x0FED, r15
    1e18:	e0 92 ec 0f 	sts	0x0FEC, r14
    1e1c:	30 93 ef 0f 	sts	0x0FEF, r19
    1e20:	20 93 ee 0f 	sts	0x0FEE, r18
    1e24:	f0 92 fe 0f 	sts	0x0FFE, r15
    1e28:	e0 92 fd 0f 	sts	0x0FFD, r14
    1e2c:	90 93 00 10 	sts	0x1000, r25
    1e30:	80 93 ff 0f 	sts	0x0FFF, r24
    1e34:	0f 2e       	mov	r0, r31
    1e36:	fa e0       	ldi	r31, 0x0A	; 10
    1e38:	ef 2e       	mov	r14, r31
    1e3a:	f1 2c       	mov	r15, r1
    1e3c:	f0 2d       	mov	r31, r0
    1e3e:	f0 92 ca 10 	sts	0x10CA, r15
    1e42:	e0 92 c9 10 	sts	0x10C9, r14
    1e46:	10 92 cc 10 	sts	0x10CC, r1
    1e4a:	10 92 cb 10 	sts	0x10CB, r1
    1e4e:	f0 92 db 10 	sts	0x10DB, r15
    1e52:	e0 92 da 10 	sts	0x10DA, r14
    1e56:	10 93 dd 10 	sts	0x10DD, r17
    1e5a:	00 93 dc 10 	sts	0x10DC, r16
    1e5e:	f0 92 ec 10 	sts	0x10EC, r15
    1e62:	e0 92 eb 10 	sts	0x10EB, r14
    1e66:	d0 93 ee 10 	sts	0x10EE, r29
    1e6a:	c0 93 ed 10 	sts	0x10ED, r28
    1e6e:	f0 92 fd 10 	sts	0x10FD, r15
    1e72:	e0 92 fc 10 	sts	0x10FC, r14
    1e76:	b0 93 ff 10 	sts	0x10FF, r27
    1e7a:	a0 93 fe 10 	sts	0x10FE, r26
    1e7e:	f0 92 0e 11 	sts	0x110E, r15
    1e82:	e0 92 0d 11 	sts	0x110D, r14
    1e86:	f0 93 10 11 	sts	0x1110, r31
    1e8a:	e0 93 0f 11 	sts	0x110F, r30
    1e8e:	f0 92 1f 11 	sts	0x111F, r15
    1e92:	e0 92 1e 11 	sts	0x111E, r14
    1e96:	70 93 21 11 	sts	0x1121, r23
    1e9a:	60 93 20 11 	sts	0x1120, r22
    1e9e:	f0 92 30 11 	sts	0x1130, r15
    1ea2:	e0 92 2f 11 	sts	0x112F, r14
    1ea6:	50 93 32 11 	sts	0x1132, r21
    1eaa:	40 93 31 11 	sts	0x1131, r20
    1eae:	f0 92 41 11 	sts	0x1141, r15
    1eb2:	e0 92 40 11 	sts	0x1140, r14
    1eb6:	30 93 43 11 	sts	0x1143, r19
    1eba:	20 93 42 11 	sts	0x1142, r18
    1ebe:	f0 92 52 11 	sts	0x1152, r15
    1ec2:	e0 92 51 11 	sts	0x1151, r14
    1ec6:	90 93 54 11 	sts	0x1154, r25
    1eca:	80 93 53 11 	sts	0x1153, r24
    1ece:	0f 2e       	mov	r0, r31
    1ed0:	fb e0       	ldi	r31, 0x0B	; 11
    1ed2:	ef 2e       	mov	r14, r31
    1ed4:	f1 2c       	mov	r15, r1
    1ed6:	f0 2d       	mov	r31, r0
    1ed8:	f0 92 1e 12 	sts	0x121E, r15
    1edc:	e0 92 1d 12 	sts	0x121D, r14
    1ee0:	10 92 20 12 	sts	0x1220, r1
    1ee4:	10 92 1f 12 	sts	0x121F, r1
    1ee8:	f0 92 2f 12 	sts	0x122F, r15
    1eec:	e0 92 2e 12 	sts	0x122E, r14
    1ef0:	10 93 31 12 	sts	0x1231, r17
    1ef4:	00 93 30 12 	sts	0x1230, r16
    1ef8:	f0 92 40 12 	sts	0x1240, r15
    1efc:	e0 92 3f 12 	sts	0x123F, r14
    1f00:	d0 93 42 12 	sts	0x1242, r29
    1f04:	c0 93 41 12 	sts	0x1241, r28
    1f08:	f0 92 51 12 	sts	0x1251, r15
    1f0c:	e0 92 50 12 	sts	0x1250, r14
    1f10:	b0 93 53 12 	sts	0x1253, r27
    1f14:	a0 93 52 12 	sts	0x1252, r26
    1f18:	f0 92 62 12 	sts	0x1262, r15
    1f1c:	e0 92 61 12 	sts	0x1261, r14
    1f20:	f0 93 64 12 	sts	0x1264, r31
    1f24:	e0 93 63 12 	sts	0x1263, r30
    1f28:	f0 92 73 12 	sts	0x1273, r15
    1f2c:	e0 92 72 12 	sts	0x1272, r14
    1f30:	70 93 75 12 	sts	0x1275, r23
    1f34:	60 93 74 12 	sts	0x1274, r22
    1f38:	f0 92 84 12 	sts	0x1284, r15
    1f3c:	e0 92 83 12 	sts	0x1283, r14
    1f40:	50 93 86 12 	sts	0x1286, r21
    1f44:	40 93 85 12 	sts	0x1285, r20
    1f48:	f0 92 95 12 	sts	0x1295, r15
    1f4c:	e0 92 94 12 	sts	0x1294, r14
    1f50:	30 93 97 12 	sts	0x1297, r19
    1f54:	20 93 96 12 	sts	0x1296, r18
    1f58:	f0 92 a6 12 	sts	0x12A6, r15
    1f5c:	e0 92 a5 12 	sts	0x12A5, r14
    1f60:	90 93 a8 12 	sts	0x12A8, r25
    1f64:	80 93 a7 12 	sts	0x12A7, r24
    1f68:	0f 2e       	mov	r0, r31
    1f6a:	fc e0       	ldi	r31, 0x0C	; 12
    1f6c:	ef 2e       	mov	r14, r31
    1f6e:	f1 2c       	mov	r15, r1
    1f70:	f0 2d       	mov	r31, r0
    1f72:	f0 92 72 13 	sts	0x1372, r15
    1f76:	e0 92 71 13 	sts	0x1371, r14
    1f7a:	10 92 74 13 	sts	0x1374, r1
    1f7e:	10 92 73 13 	sts	0x1373, r1
    1f82:	f0 92 83 13 	sts	0x1383, r15
    1f86:	e0 92 82 13 	sts	0x1382, r14
    1f8a:	10 93 85 13 	sts	0x1385, r17
    1f8e:	00 93 84 13 	sts	0x1384, r16
    1f92:	f0 92 94 13 	sts	0x1394, r15
    1f96:	e0 92 93 13 	sts	0x1393, r14
    1f9a:	d0 93 96 13 	sts	0x1396, r29
    1f9e:	c0 93 95 13 	sts	0x1395, r28
    1fa2:	f0 92 a5 13 	sts	0x13A5, r15
    1fa6:	e0 92 a4 13 	sts	0x13A4, r14
    1faa:	b0 93 a7 13 	sts	0x13A7, r27
    1fae:	a0 93 a6 13 	sts	0x13A6, r26
    1fb2:	f0 92 b6 13 	sts	0x13B6, r15
    1fb6:	e0 92 b5 13 	sts	0x13B5, r14
    1fba:	f0 93 b8 13 	sts	0x13B8, r31
    1fbe:	e0 93 b7 13 	sts	0x13B7, r30
    1fc2:	f0 92 c7 13 	sts	0x13C7, r15
    1fc6:	e0 92 c6 13 	sts	0x13C6, r14
    1fca:	70 93 c9 13 	sts	0x13C9, r23
    1fce:	60 93 c8 13 	sts	0x13C8, r22
    1fd2:	f0 92 d8 13 	sts	0x13D8, r15
    1fd6:	e0 92 d7 13 	sts	0x13D7, r14
    1fda:	50 93 da 13 	sts	0x13DA, r21
    1fde:	40 93 d9 13 	sts	0x13D9, r20
    1fe2:	f0 92 e9 13 	sts	0x13E9, r15
    1fe6:	e0 92 e8 13 	sts	0x13E8, r14
    1fea:	30 93 eb 13 	sts	0x13EB, r19
    1fee:	20 93 ea 13 	sts	0x13EA, r18
    1ff2:	f0 92 fa 13 	sts	0x13FA, r15
    1ff6:	e0 92 f9 13 	sts	0x13F9, r14
    1ffa:	90 93 fc 13 	sts	0x13FC, r25
    1ffe:	80 93 fb 13 	sts	0x13FB, r24
    2002:	0f 2e       	mov	r0, r31
    2004:	fd e0       	ldi	r31, 0x0D	; 13
    2006:	ef 2e       	mov	r14, r31
    2008:	f1 2c       	mov	r15, r1
    200a:	f0 2d       	mov	r31, r0
    200c:	f0 92 c6 14 	sts	0x14C6, r15
    2010:	e0 92 c5 14 	sts	0x14C5, r14
    2014:	10 92 c8 14 	sts	0x14C8, r1
    2018:	10 92 c7 14 	sts	0x14C7, r1
    201c:	f0 92 d7 14 	sts	0x14D7, r15
    2020:	e0 92 d6 14 	sts	0x14D6, r14
    2024:	10 93 d9 14 	sts	0x14D9, r17
    2028:	00 93 d8 14 	sts	0x14D8, r16
    202c:	f0 92 e8 14 	sts	0x14E8, r15
    2030:	e0 92 e7 14 	sts	0x14E7, r14
    2034:	d0 93 ea 14 	sts	0x14EA, r29
    2038:	c0 93 e9 14 	sts	0x14E9, r28
    203c:	f0 92 f9 14 	sts	0x14F9, r15
    2040:	e0 92 f8 14 	sts	0x14F8, r14
    2044:	b0 93 fb 14 	sts	0x14FB, r27
    2048:	a0 93 fa 14 	sts	0x14FA, r26
    204c:	f0 92 0a 15 	sts	0x150A, r15
    2050:	e0 92 09 15 	sts	0x1509, r14
    2054:	f0 93 0c 15 	sts	0x150C, r31
    2058:	e0 93 0b 15 	sts	0x150B, r30
    205c:	f0 92 1b 15 	sts	0x151B, r15
    2060:	e0 92 1a 15 	sts	0x151A, r14
    2064:	70 93 1d 15 	sts	0x151D, r23
    2068:	60 93 1c 15 	sts	0x151C, r22
    206c:	f0 92 2c 15 	sts	0x152C, r15
    2070:	e0 92 2b 15 	sts	0x152B, r14
    2074:	50 93 2e 15 	sts	0x152E, r21
    2078:	40 93 2d 15 	sts	0x152D, r20
    207c:	f0 92 3d 15 	sts	0x153D, r15
    2080:	e0 92 3c 15 	sts	0x153C, r14
    2084:	30 93 3f 15 	sts	0x153F, r19
    2088:	20 93 3e 15 	sts	0x153E, r18
    208c:	f0 92 4e 15 	sts	0x154E, r15
    2090:	e0 92 4d 15 	sts	0x154D, r14
    2094:	90 93 50 15 	sts	0x1550, r25
    2098:	80 93 4f 15 	sts	0x154F, r24
    209c:	0f 2e       	mov	r0, r31
    209e:	fe e0       	ldi	r31, 0x0E	; 14
    20a0:	ef 2e       	mov	r14, r31
    20a2:	f1 2c       	mov	r15, r1
    20a4:	f0 2d       	mov	r31, r0
    20a6:	f0 92 1a 16 	sts	0x161A, r15
    20aa:	e0 92 19 16 	sts	0x1619, r14
    20ae:	10 92 1c 16 	sts	0x161C, r1
    20b2:	10 92 1b 16 	sts	0x161B, r1
    20b6:	f0 92 2b 16 	sts	0x162B, r15
    20ba:	e0 92 2a 16 	sts	0x162A, r14
    20be:	10 93 2d 16 	sts	0x162D, r17
    20c2:	00 93 2c 16 	sts	0x162C, r16
    20c6:	f0 92 3c 16 	sts	0x163C, r15
    20ca:	e0 92 3b 16 	sts	0x163B, r14
    20ce:	d0 93 3e 16 	sts	0x163E, r29
    20d2:	c0 93 3d 16 	sts	0x163D, r28
    20d6:	f0 92 4d 16 	sts	0x164D, r15
    20da:	e0 92 4c 16 	sts	0x164C, r14
    20de:	b0 93 4f 16 	sts	0x164F, r27
    20e2:	a0 93 4e 16 	sts	0x164E, r26
    20e6:	f0 92 5e 16 	sts	0x165E, r15
    20ea:	e0 92 5d 16 	sts	0x165D, r14
    20ee:	f0 93 60 16 	sts	0x1660, r31
    20f2:	e0 93 5f 16 	sts	0x165F, r30
    20f6:	f0 92 6f 16 	sts	0x166F, r15
    20fa:	e0 92 6e 16 	sts	0x166E, r14
    20fe:	70 93 71 16 	sts	0x1671, r23
    2102:	60 93 70 16 	sts	0x1670, r22
    2106:	f0 92 80 16 	sts	0x1680, r15
    210a:	e0 92 7f 16 	sts	0x167F, r14
    210e:	50 93 82 16 	sts	0x1682, r21
    2112:	40 93 81 16 	sts	0x1681, r20
    2116:	f0 92 91 16 	sts	0x1691, r15
    211a:	e0 92 90 16 	sts	0x1690, r14
    211e:	30 93 93 16 	sts	0x1693, r19
    2122:	20 93 92 16 	sts	0x1692, r18
    2126:	f0 92 a2 16 	sts	0x16A2, r15
    212a:	e0 92 a1 16 	sts	0x16A1, r14
    212e:	90 93 a4 16 	sts	0x16A4, r25
    2132:	80 93 a3 16 	sts	0x16A3, r24
    2136:	df 91       	pop	r29
    2138:	cf 91       	pop	r28
    213a:	1f 91       	pop	r17
    213c:	0f 91       	pop	r16
    213e:	ff 90       	pop	r15
    2140:	ef 90       	pop	r14
    2142:	df 90       	pop	r13
    2144:	cf 90       	pop	r12
    2146:	bf 90       	pop	r11
    2148:	af 90       	pop	r10
    214a:	9f 90       	pop	r9
    214c:	8f 90       	pop	r8
    214e:	7f 90       	pop	r7
    2150:	6f 90       	pop	r6
    2152:	5f 90       	pop	r5
    2154:	4f 90       	pop	r4
    2156:	3f 90       	pop	r3
    2158:	2f 90       	pop	r2
    215a:	08 95       	ret

0000215c <_Z26InitialiseMooreValuesTo100v>:
    215c:	2c e7       	ldi	r18, 0x7C	; 124
    215e:	33 e0       	ldi	r19, 0x03	; 3
    2160:	68 e6       	ldi	r22, 0x68	; 104
    2162:	77 e1       	ldi	r23, 0x17	; 23
    2164:	b0 e0       	ldi	r27, 0x00	; 0
    2166:	a0 e0       	ldi	r26, 0x00	; 0
    2168:	44 e6       	ldi	r20, 0x64	; 100
    216a:	50 e0       	ldi	r21, 0x00	; 0
    216c:	0e c0       	rjmp	.+28     	; 0x218a <_Z26InitialiseMooreValuesTo100v+0x2e>
    216e:	f9 01       	movw	r30, r18
    2170:	e8 0f       	add	r30, r24
    2172:	f9 1f       	adc	r31, r25
    2174:	51 83       	std	Z+1, r21	; 0x01
    2176:	40 83       	st	Z, r20
    2178:	41 96       	adiw	r24, 0x11	; 17
    217a:	89 39       	cpi	r24, 0x99	; 153
    217c:	91 05       	cpc	r25, r1
    217e:	b9 f7       	brne	.-18     	; 0x216e <_Z26InitialiseMooreValuesTo100v+0x12>
    2180:	2c 5a       	subi	r18, 0xAC	; 172
    2182:	3e 4f       	sbci	r19, 0xFE	; 254
    2184:	26 17       	cp	r18, r22
    2186:	37 07       	cpc	r19, r23
    2188:	19 f0       	breq	.+6      	; 0x2190 <_Z26InitialiseMooreValuesTo100v+0x34>
    218a:	8b 2f       	mov	r24, r27
    218c:	9a 2f       	mov	r25, r26
    218e:	ef cf       	rjmp	.-34     	; 0x216e <_Z26InitialiseMooreValuesTo100v+0x12>
    2190:	08 95       	ret

00002192 <_Z32MooreValueAssignerUsingRecursionP3mapS0_ic>:
    2192:	ef 92       	push	r14
    2194:	ff 92       	push	r15
    2196:	0f 93       	push	r16
    2198:	1f 93       	push	r17
    219a:	cf 93       	push	r28
    219c:	df 93       	push	r29
    219e:	ec 01       	movw	r28, r24
    21a0:	7b 01       	movw	r14, r22
    21a2:	8a 01       	movw	r16, r20
    21a4:	0f 5f       	subi	r16, 0xFF	; 255
    21a6:	1f 4f       	sbci	r17, 0xFF	; 255
    21a8:	59 83       	std	Y+1, r21	; 0x01
    21aa:	48 83       	st	Y, r20
    21ac:	83 e0       	ldi	r24, 0x03	; 3
    21ae:	cb 36       	cpi	r28, 0x6B	; 107
    21b0:	d8 07       	cpc	r29, r24
    21b2:	09 f4       	brne	.+2      	; 0x21b6 <_Z32MooreValueAssignerUsingRecursionP3mapS0_ic+0x24>
    21b4:	dd c0       	rjmp	.+442    	; 0x2370 <__stack+0x171>
    21b6:	c6 17       	cp	r28, r22
    21b8:	d7 07       	cpc	r29, r23
    21ba:	39 f4       	brne	.+14     	; 0x21ca <_Z32MooreValueAssignerUsingRecursionP3mapS0_ic+0x38>
    21bc:	04 17       	cp	r16, r20
    21be:	15 07       	cpc	r17, r21
    21c0:	0c f0       	brlt	.+2      	; 0x21c4 <_Z32MooreValueAssignerUsingRecursionP3mapS0_ic+0x32>
    21c2:	d6 c0       	rjmp	.+428    	; 0x2370 <__stack+0x171>
    21c4:	19 83       	std	Y+1, r17	; 0x01
    21c6:	08 83       	st	Y, r16
    21c8:	d3 c0       	rjmp	.+422    	; 0x2370 <__stack+0x171>
    21ca:	2e 36       	cpi	r18, 0x6E	; 110
    21cc:	09 f4       	brne	.+2      	; 0x21d0 <_Z32MooreValueAssignerUsingRecursionP3mapS0_ic+0x3e>
    21ce:	64 c0       	rjmp	.+200    	; 0x2298 <__stack+0x99>
    21d0:	30 f4       	brcc	.+12     	; 0x21de <_Z32MooreValueAssignerUsingRecursionP3mapS0_ic+0x4c>
    21d2:	25 36       	cpi	r18, 0x65	; 101
    21d4:	09 f4       	brne	.+2      	; 0x21d8 <_Z32MooreValueAssignerUsingRecursionP3mapS0_ic+0x46>
    21d6:	3b c0       	rjmp	.+118    	; 0x224e <__stack+0x4f>
    21d8:	29 36       	cpi	r18, 0x69	; 105
    21da:	41 f0       	breq	.+16     	; 0x21ec <_Z32MooreValueAssignerUsingRecursionP3mapS0_ic+0x5a>
    21dc:	c9 c0       	rjmp	.+402    	; 0x2370 <__stack+0x171>
    21de:	23 37       	cpi	r18, 0x73	; 115
    21e0:	09 f4       	brne	.+2      	; 0x21e4 <_Z32MooreValueAssignerUsingRecursionP3mapS0_ic+0x52>
    21e2:	a3 c0       	rjmp	.+326    	; 0x232a <__stack+0x12b>
    21e4:	27 37       	cpi	r18, 0x77	; 119
    21e6:	09 f4       	brne	.+2      	; 0x21ea <_Z32MooreValueAssignerUsingRecursionP3mapS0_ic+0x58>
    21e8:	7c c0       	rjmp	.+248    	; 0x22e2 <__stack+0xe3>
    21ea:	c2 c0       	rjmp	.+388    	; 0x2370 <__stack+0x171>
    21ec:	e9 85       	ldd	r30, Y+9	; 0x09
    21ee:	fa 85       	ldd	r31, Y+10	; 0x0a
    21f0:	80 81       	ld	r24, Z
    21f2:	91 81       	ldd	r25, Z+1	; 0x01
    21f4:	08 17       	cp	r16, r24
    21f6:	19 07       	cpc	r17, r25
    21f8:	24 f4       	brge	.+8      	; 0x2202 <__stack+0x3>
    21fa:	2e e6       	ldi	r18, 0x6E	; 110
    21fc:	a8 01       	movw	r20, r16
    21fe:	cf 01       	movw	r24, r30
    2200:	c8 df       	rcall	.-112    	; 0x2192 <_Z32MooreValueAssignerUsingRecursionP3mapS0_ic>
    2202:	eb 85       	ldd	r30, Y+11	; 0x0b
    2204:	fc 85       	ldd	r31, Y+12	; 0x0c
    2206:	80 81       	ld	r24, Z
    2208:	91 81       	ldd	r25, Z+1	; 0x01
    220a:	08 17       	cp	r16, r24
    220c:	19 07       	cpc	r17, r25
    220e:	2c f4       	brge	.+10     	; 0x221a <__stack+0x1b>
    2210:	25 e6       	ldi	r18, 0x65	; 101
    2212:	a8 01       	movw	r20, r16
    2214:	b7 01       	movw	r22, r14
    2216:	cf 01       	movw	r24, r30
    2218:	bc df       	rcall	.-136    	; 0x2192 <_Z32MooreValueAssignerUsingRecursionP3mapS0_ic>
    221a:	ed 85       	ldd	r30, Y+13	; 0x0d
    221c:	fe 85       	ldd	r31, Y+14	; 0x0e
    221e:	80 81       	ld	r24, Z
    2220:	91 81       	ldd	r25, Z+1	; 0x01
    2222:	08 17       	cp	r16, r24
    2224:	19 07       	cpc	r17, r25
    2226:	2c f4       	brge	.+10     	; 0x2232 <__stack+0x33>
    2228:	23 e7       	ldi	r18, 0x73	; 115
    222a:	a8 01       	movw	r20, r16
    222c:	b7 01       	movw	r22, r14
    222e:	cf 01       	movw	r24, r30
    2230:	b0 df       	rcall	.-160    	; 0x2192 <_Z32MooreValueAssignerUsingRecursionP3mapS0_ic>
    2232:	ef 85       	ldd	r30, Y+15	; 0x0f
    2234:	f8 89       	ldd	r31, Y+16	; 0x10
    2236:	80 81       	ld	r24, Z
    2238:	91 81       	ldd	r25, Z+1	; 0x01
    223a:	08 17       	cp	r16, r24
    223c:	19 07       	cpc	r17, r25
    223e:	0c f0       	brlt	.+2      	; 0x2242 <__stack+0x43>
    2240:	97 c0       	rjmp	.+302    	; 0x2370 <__stack+0x171>
    2242:	27 e7       	ldi	r18, 0x77	; 119
    2244:	a8 01       	movw	r20, r16
    2246:	b7 01       	movw	r22, r14
    2248:	cf 01       	movw	r24, r30
    224a:	a3 df       	rcall	.-186    	; 0x2192 <_Z32MooreValueAssignerUsingRecursionP3mapS0_ic>
    224c:	91 c0       	rjmp	.+290    	; 0x2370 <__stack+0x171>
    224e:	e9 85       	ldd	r30, Y+9	; 0x09
    2250:	fa 85       	ldd	r31, Y+10	; 0x0a
    2252:	80 81       	ld	r24, Z
    2254:	91 81       	ldd	r25, Z+1	; 0x01
    2256:	08 17       	cp	r16, r24
    2258:	19 07       	cpc	r17, r25
    225a:	24 f4       	brge	.+8      	; 0x2264 <__stack+0x65>
    225c:	2e e6       	ldi	r18, 0x6E	; 110
    225e:	a8 01       	movw	r20, r16
    2260:	cf 01       	movw	r24, r30
    2262:	97 df       	rcall	.-210    	; 0x2192 <_Z32MooreValueAssignerUsingRecursionP3mapS0_ic>
    2264:	eb 85       	ldd	r30, Y+11	; 0x0b
    2266:	fc 85       	ldd	r31, Y+12	; 0x0c
    2268:	80 81       	ld	r24, Z
    226a:	91 81       	ldd	r25, Z+1	; 0x01
    226c:	08 17       	cp	r16, r24
    226e:	19 07       	cpc	r17, r25
    2270:	2c f4       	brge	.+10     	; 0x227c <__stack+0x7d>
    2272:	25 e6       	ldi	r18, 0x65	; 101
    2274:	a8 01       	movw	r20, r16
    2276:	b7 01       	movw	r22, r14
    2278:	cf 01       	movw	r24, r30
    227a:	8b df       	rcall	.-234    	; 0x2192 <_Z32MooreValueAssignerUsingRecursionP3mapS0_ic>
    227c:	ed 85       	ldd	r30, Y+13	; 0x0d
    227e:	fe 85       	ldd	r31, Y+14	; 0x0e
    2280:	80 81       	ld	r24, Z
    2282:	91 81       	ldd	r25, Z+1	; 0x01
    2284:	08 17       	cp	r16, r24
    2286:	19 07       	cpc	r17, r25
    2288:	0c f0       	brlt	.+2      	; 0x228c <__stack+0x8d>
    228a:	72 c0       	rjmp	.+228    	; 0x2370 <__stack+0x171>
    228c:	23 e7       	ldi	r18, 0x73	; 115
    228e:	a8 01       	movw	r20, r16
    2290:	b7 01       	movw	r22, r14
    2292:	cf 01       	movw	r24, r30
    2294:	7e df       	rcall	.-260    	; 0x2192 <_Z32MooreValueAssignerUsingRecursionP3mapS0_ic>
    2296:	6c c0       	rjmp	.+216    	; 0x2370 <__stack+0x171>
    2298:	e9 85       	ldd	r30, Y+9	; 0x09
    229a:	fa 85       	ldd	r31, Y+10	; 0x0a
    229c:	80 81       	ld	r24, Z
    229e:	91 81       	ldd	r25, Z+1	; 0x01
    22a0:	08 17       	cp	r16, r24
    22a2:	19 07       	cpc	r17, r25
    22a4:	24 f4       	brge	.+8      	; 0x22ae <__stack+0xaf>
    22a6:	2e e6       	ldi	r18, 0x6E	; 110
    22a8:	a8 01       	movw	r20, r16
    22aa:	cf 01       	movw	r24, r30
    22ac:	72 df       	rcall	.-284    	; 0x2192 <_Z32MooreValueAssignerUsingRecursionP3mapS0_ic>
    22ae:	eb 85       	ldd	r30, Y+11	; 0x0b
    22b0:	fc 85       	ldd	r31, Y+12	; 0x0c
    22b2:	80 81       	ld	r24, Z
    22b4:	91 81       	ldd	r25, Z+1	; 0x01
    22b6:	08 17       	cp	r16, r24
    22b8:	19 07       	cpc	r17, r25
    22ba:	2c f4       	brge	.+10     	; 0x22c6 <__stack+0xc7>
    22bc:	25 e6       	ldi	r18, 0x65	; 101
    22be:	a8 01       	movw	r20, r16
    22c0:	b7 01       	movw	r22, r14
    22c2:	cf 01       	movw	r24, r30
    22c4:	66 df       	rcall	.-308    	; 0x2192 <_Z32MooreValueAssignerUsingRecursionP3mapS0_ic>
    22c6:	ef 85       	ldd	r30, Y+15	; 0x0f
    22c8:	f8 89       	ldd	r31, Y+16	; 0x10
    22ca:	80 81       	ld	r24, Z
    22cc:	91 81       	ldd	r25, Z+1	; 0x01
    22ce:	08 17       	cp	r16, r24
    22d0:	19 07       	cpc	r17, r25
    22d2:	0c f0       	brlt	.+2      	; 0x22d6 <__stack+0xd7>
    22d4:	4d c0       	rjmp	.+154    	; 0x2370 <__stack+0x171>
    22d6:	27 e7       	ldi	r18, 0x77	; 119
    22d8:	a8 01       	movw	r20, r16
    22da:	b7 01       	movw	r22, r14
    22dc:	cf 01       	movw	r24, r30
    22de:	59 df       	rcall	.-334    	; 0x2192 <_Z32MooreValueAssignerUsingRecursionP3mapS0_ic>
    22e0:	47 c0       	rjmp	.+142    	; 0x2370 <__stack+0x171>
    22e2:	e9 85       	ldd	r30, Y+9	; 0x09
    22e4:	fa 85       	ldd	r31, Y+10	; 0x0a
    22e6:	80 81       	ld	r24, Z
    22e8:	91 81       	ldd	r25, Z+1	; 0x01
    22ea:	08 17       	cp	r16, r24
    22ec:	19 07       	cpc	r17, r25
    22ee:	24 f4       	brge	.+8      	; 0x22f8 <__stack+0xf9>
    22f0:	2e e6       	ldi	r18, 0x6E	; 110
    22f2:	a8 01       	movw	r20, r16
    22f4:	cf 01       	movw	r24, r30
    22f6:	4d df       	rcall	.-358    	; 0x2192 <_Z32MooreValueAssignerUsingRecursionP3mapS0_ic>
    22f8:	ed 85       	ldd	r30, Y+13	; 0x0d
    22fa:	fe 85       	ldd	r31, Y+14	; 0x0e
    22fc:	80 81       	ld	r24, Z
    22fe:	91 81       	ldd	r25, Z+1	; 0x01
    2300:	08 17       	cp	r16, r24
    2302:	19 07       	cpc	r17, r25
    2304:	2c f4       	brge	.+10     	; 0x2310 <__stack+0x111>
    2306:	23 e7       	ldi	r18, 0x73	; 115
    2308:	a8 01       	movw	r20, r16
    230a:	b7 01       	movw	r22, r14
    230c:	cf 01       	movw	r24, r30
    230e:	41 df       	rcall	.-382    	; 0x2192 <_Z32MooreValueAssignerUsingRecursionP3mapS0_ic>
    2310:	ef 85       	ldd	r30, Y+15	; 0x0f
    2312:	f8 89       	ldd	r31, Y+16	; 0x10
    2314:	80 81       	ld	r24, Z
    2316:	91 81       	ldd	r25, Z+1	; 0x01
    2318:	08 17       	cp	r16, r24
    231a:	19 07       	cpc	r17, r25
    231c:	4c f5       	brge	.+82     	; 0x2370 <__stack+0x171>
    231e:	27 e7       	ldi	r18, 0x77	; 119
    2320:	a8 01       	movw	r20, r16
    2322:	b7 01       	movw	r22, r14
    2324:	cf 01       	movw	r24, r30
    2326:	35 df       	rcall	.-406    	; 0x2192 <_Z32MooreValueAssignerUsingRecursionP3mapS0_ic>
    2328:	23 c0       	rjmp	.+70     	; 0x2370 <__stack+0x171>
    232a:	eb 85       	ldd	r30, Y+11	; 0x0b
    232c:	fc 85       	ldd	r31, Y+12	; 0x0c
    232e:	80 81       	ld	r24, Z
    2330:	91 81       	ldd	r25, Z+1	; 0x01
    2332:	08 17       	cp	r16, r24
    2334:	19 07       	cpc	r17, r25
    2336:	24 f4       	brge	.+8      	; 0x2340 <__stack+0x141>
    2338:	25 e6       	ldi	r18, 0x65	; 101
    233a:	a8 01       	movw	r20, r16
    233c:	cf 01       	movw	r24, r30
    233e:	29 df       	rcall	.-430    	; 0x2192 <_Z32MooreValueAssignerUsingRecursionP3mapS0_ic>
    2340:	ed 85       	ldd	r30, Y+13	; 0x0d
    2342:	fe 85       	ldd	r31, Y+14	; 0x0e
    2344:	80 81       	ld	r24, Z
    2346:	91 81       	ldd	r25, Z+1	; 0x01
    2348:	08 17       	cp	r16, r24
    234a:	19 07       	cpc	r17, r25
    234c:	2c f4       	brge	.+10     	; 0x2358 <__stack+0x159>
    234e:	23 e7       	ldi	r18, 0x73	; 115
    2350:	a8 01       	movw	r20, r16
    2352:	b7 01       	movw	r22, r14
    2354:	cf 01       	movw	r24, r30
    2356:	1d df       	rcall	.-454    	; 0x2192 <_Z32MooreValueAssignerUsingRecursionP3mapS0_ic>
    2358:	ef 85       	ldd	r30, Y+15	; 0x0f
    235a:	f8 89       	ldd	r31, Y+16	; 0x10
    235c:	80 81       	ld	r24, Z
    235e:	91 81       	ldd	r25, Z+1	; 0x01
    2360:	08 17       	cp	r16, r24
    2362:	19 07       	cpc	r17, r25
    2364:	2c f4       	brge	.+10     	; 0x2370 <__stack+0x171>
    2366:	27 e7       	ldi	r18, 0x77	; 119
    2368:	a8 01       	movw	r20, r16
    236a:	b7 01       	movw	r22, r14
    236c:	cf 01       	movw	r24, r30
    236e:	11 df       	rcall	.-478    	; 0x2192 <_Z32MooreValueAssignerUsingRecursionP3mapS0_ic>
    2370:	df 91       	pop	r29
    2372:	cf 91       	pop	r28
    2374:	1f 91       	pop	r17
    2376:	0f 91       	pop	r16
    2378:	ff 90       	pop	r15
    237a:	ef 90       	pop	r14
    237c:	08 95       	ret

0000237e <_Z20allocate_moore_valueP3mapS0_>:
    237e:	0f 93       	push	r16
    2380:	1f 93       	push	r17
    2382:	cf 93       	push	r28
    2384:	df 93       	push	r29
    2386:	ec 01       	movw	r28, r24
    2388:	8b 01       	movw	r16, r22
    238a:	e8 de       	rcall	.-560    	; 0x215c <_Z26InitialiseMooreValuesTo100v>
    238c:	29 e6       	ldi	r18, 0x69	; 105
    238e:	40 e0       	ldi	r20, 0x00	; 0
    2390:	50 e0       	ldi	r21, 0x00	; 0
    2392:	b8 01       	movw	r22, r16
    2394:	ce 01       	movw	r24, r28
    2396:	fd de       	rcall	.-518    	; 0x2192 <_Z32MooreValueAssignerUsingRecursionP3mapS0_ic>
    2398:	df 91       	pop	r29
    239a:	cf 91       	pop	r28
    239c:	1f 91       	pop	r17
    239e:	0f 91       	pop	r16
    23a0:	08 95       	ret

000023a2 <_Z16directionfetcherP3mapS0_>:
    23a2:	8f 92       	push	r8
    23a4:	9f 92       	push	r9
    23a6:	af 92       	push	r10
    23a8:	bf 92       	push	r11
    23aa:	cf 92       	push	r12
    23ac:	df 92       	push	r13
    23ae:	ef 92       	push	r14
    23b0:	ff 92       	push	r15
    23b2:	0f 93       	push	r16
    23b4:	1f 93       	push	r17
    23b6:	cf 93       	push	r28
    23b8:	df 93       	push	r29
    23ba:	cd b7       	in	r28, 0x3d	; 61
    23bc:	de b7       	in	r29, 0x3e	; 62
    23be:	c6 5c       	subi	r28, 0xC6	; 198
    23c0:	d1 09       	sbc	r29, r1
    23c2:	0f b6       	in	r0, 0x3f	; 63
    23c4:	f8 94       	cli
    23c6:	de bf       	out	0x3e, r29	; 62
    23c8:	0f be       	out	0x3f, r0	; 63
    23ca:	cd bf       	out	0x3d, r28	; 61
    23cc:	fb 01       	movw	r30, r22
    23ce:	68 17       	cp	r22, r24
    23d0:	79 07       	cpc	r23, r25
    23d2:	09 f4       	brne	.+2      	; 0x23d6 <_Z16directionfetcherP3mapS0_+0x34>
    23d4:	6b c0       	rjmp	.+214    	; 0x24ac <_Z16directionfetcherP3mapS0_+0x10a>
    23d6:	40 91 15 02 	lds	r20, 0x0215
    23da:	50 91 16 02 	lds	r21, 0x0216
    23de:	9e 01       	movw	r18, r28
    23e0:	2f 5f       	subi	r18, 0xFF	; 255
    23e2:	3f 4f       	sbci	r19, 0xFF	; 255
    23e4:	49 01       	movw	r8, r18
    23e6:	68 94       	set
    23e8:	aa 24       	eor	r10, r10
    23ea:	a1 f8       	bld	r10, 1
    23ec:	b1 2c       	mov	r11, r1
    23ee:	cc 24       	eor	r12, r12
    23f0:	c3 94       	inc	r12
    23f2:	d1 2c       	mov	r13, r1
    23f4:	68 94       	set
    23f6:	ee 24       	eor	r14, r14
    23f8:	e2 f8       	bld	r14, 2
    23fa:	f1 2c       	mov	r15, r1
    23fc:	03 e0       	ldi	r16, 0x03	; 3
    23fe:	10 e0       	ldi	r17, 0x00	; 0
    2400:	21 85       	ldd	r18, Z+9	; 0x09
    2402:	32 85       	ldd	r19, Z+10	; 0x0a
    2404:	24 17       	cp	r18, r20
    2406:	35 07       	cpc	r19, r21
    2408:	79 f0       	breq	.+30     	; 0x2428 <_Z16directionfetcherP3mapS0_+0x86>
    240a:	60 81       	ld	r22, Z
    240c:	71 81       	ldd	r23, Z+1	; 0x01
    240e:	d9 01       	movw	r26, r18
    2410:	2d 91       	ld	r18, X+
    2412:	3c 91       	ld	r19, X
    2414:	26 17       	cp	r18, r22
    2416:	37 07       	cpc	r19, r23
    2418:	3c f4       	brge	.+14     	; 0x2428 <_Z16directionfetcherP3mapS0_+0x86>
    241a:	d4 01       	movw	r26, r8
    241c:	0d 93       	st	X+, r16
    241e:	1c 93       	st	X, r17
    2420:	01 84       	ldd	r0, Z+9	; 0x09
    2422:	f2 85       	ldd	r31, Z+10	; 0x0a
    2424:	e0 2d       	mov	r30, r0
    2426:	3b c0       	rjmp	.+118    	; 0x249e <_Z16directionfetcherP3mapS0_+0xfc>
    2428:	23 85       	ldd	r18, Z+11	; 0x0b
    242a:	34 85       	ldd	r19, Z+12	; 0x0c
    242c:	42 17       	cp	r20, r18
    242e:	53 07       	cpc	r21, r19
    2430:	79 f0       	breq	.+30     	; 0x2450 <_Z16directionfetcherP3mapS0_+0xae>
    2432:	60 81       	ld	r22, Z
    2434:	71 81       	ldd	r23, Z+1	; 0x01
    2436:	d9 01       	movw	r26, r18
    2438:	2d 91       	ld	r18, X+
    243a:	3c 91       	ld	r19, X
    243c:	26 17       	cp	r18, r22
    243e:	37 07       	cpc	r19, r23
    2440:	3c f4       	brge	.+14     	; 0x2450 <_Z16directionfetcherP3mapS0_+0xae>
    2442:	d4 01       	movw	r26, r8
    2444:	ed 92       	st	X+, r14
    2446:	fc 92       	st	X, r15
    2448:	03 84       	ldd	r0, Z+11	; 0x0b
    244a:	f4 85       	ldd	r31, Z+12	; 0x0c
    244c:	e0 2d       	mov	r30, r0
    244e:	27 c0       	rjmp	.+78     	; 0x249e <_Z16directionfetcherP3mapS0_+0xfc>
    2450:	25 85       	ldd	r18, Z+13	; 0x0d
    2452:	36 85       	ldd	r19, Z+14	; 0x0e
    2454:	42 17       	cp	r20, r18
    2456:	53 07       	cpc	r21, r19
    2458:	79 f0       	breq	.+30     	; 0x2478 <_Z16directionfetcherP3mapS0_+0xd6>
    245a:	60 81       	ld	r22, Z
    245c:	71 81       	ldd	r23, Z+1	; 0x01
    245e:	d9 01       	movw	r26, r18
    2460:	2d 91       	ld	r18, X+
    2462:	3c 91       	ld	r19, X
    2464:	26 17       	cp	r18, r22
    2466:	37 07       	cpc	r19, r23
    2468:	3c f4       	brge	.+14     	; 0x2478 <_Z16directionfetcherP3mapS0_+0xd6>
    246a:	d4 01       	movw	r26, r8
    246c:	cd 92       	st	X+, r12
    246e:	dc 92       	st	X, r13
    2470:	05 84       	ldd	r0, Z+13	; 0x0d
    2472:	f6 85       	ldd	r31, Z+14	; 0x0e
    2474:	e0 2d       	mov	r30, r0
    2476:	13 c0       	rjmp	.+38     	; 0x249e <_Z16directionfetcherP3mapS0_+0xfc>
    2478:	27 85       	ldd	r18, Z+15	; 0x0f
    247a:	30 89       	ldd	r19, Z+16	; 0x10
    247c:	42 17       	cp	r20, r18
    247e:	53 07       	cpc	r21, r19
    2480:	71 f0       	breq	.+28     	; 0x249e <_Z16directionfetcherP3mapS0_+0xfc>
    2482:	60 81       	ld	r22, Z
    2484:	71 81       	ldd	r23, Z+1	; 0x01
    2486:	d9 01       	movw	r26, r18
    2488:	2d 91       	ld	r18, X+
    248a:	3c 91       	ld	r19, X
    248c:	26 17       	cp	r18, r22
    248e:	37 07       	cpc	r19, r23
    2490:	34 f4       	brge	.+12     	; 0x249e <_Z16directionfetcherP3mapS0_+0xfc>
    2492:	d4 01       	movw	r26, r8
    2494:	ad 92       	st	X+, r10
    2496:	bc 92       	st	X, r11
    2498:	07 84       	ldd	r0, Z+15	; 0x0f
    249a:	f0 89       	ldd	r31, Z+16	; 0x10
    249c:	e0 2d       	mov	r30, r0
    249e:	b2 e0       	ldi	r27, 0x02	; 2
    24a0:	8b 0e       	add	r8, r27
    24a2:	91 1c       	adc	r9, r1
    24a4:	e8 17       	cp	r30, r24
    24a6:	f9 07       	cpc	r31, r25
    24a8:	09 f0       	breq	.+2      	; 0x24ac <_Z16directionfetcherP3mapS0_+0x10a>
    24aa:	aa cf       	rjmp	.-172    	; 0x2400 <_Z16directionfetcherP3mapS0_+0x5e>
    24ac:	ce 01       	movw	r24, r28
    24ae:	01 96       	adiw	r24, 0x01	; 1
    24b0:	ca 53       	subi	r28, 0x3A	; 58
    24b2:	df 4f       	sbci	r29, 0xFF	; 255
    24b4:	0f b6       	in	r0, 0x3f	; 63
    24b6:	f8 94       	cli
    24b8:	de bf       	out	0x3e, r29	; 62
    24ba:	0f be       	out	0x3f, r0	; 63
    24bc:	cd bf       	out	0x3d, r28	; 61
    24be:	df 91       	pop	r29
    24c0:	cf 91       	pop	r28
    24c2:	1f 91       	pop	r17
    24c4:	0f 91       	pop	r16
    24c6:	ff 90       	pop	r15
    24c8:	ef 90       	pop	r14
    24ca:	df 90       	pop	r13
    24cc:	cf 90       	pop	r12
    24ce:	bf 90       	pop	r11
    24d0:	af 90       	pop	r10
    24d2:	9f 90       	pop	r9
    24d4:	8f 90       	pop	r8
    24d6:	08 95       	ret

000024d8 <_Z4mappP3mapS0_>:
    24d8:	cf 93       	push	r28
    24da:	df 93       	push	r29
    24dc:	28 ec       	ldi	r18, 0xC8	; 200
    24de:	3c e0       	ldi	r19, 0x0C	; 12
    24e0:	30 93 6a 03 	sts	0x036A, r19
    24e4:	20 93 69 03 	sts	0x0369, r18
    24e8:	90 93 66 03 	sts	0x0366, r25
    24ec:	80 93 65 03 	sts	0x0365, r24
    24f0:	60 91 63 03 	lds	r22, 0x0363
    24f4:	70 91 64 03 	lds	r23, 0x0364
    24f8:	42 df       	rcall	.-380    	; 0x237e <_Z20allocate_moore_valueP3mapS0_>
    24fa:	60 91 63 03 	lds	r22, 0x0363
    24fe:	70 91 64 03 	lds	r23, 0x0364
    2502:	fb 01       	movw	r30, r22
    2504:	c0 81       	ld	r28, Z
    2506:	d1 81       	ldd	r29, Z+1	; 0x01
    2508:	d0 93 62 03 	sts	0x0362, r29
    250c:	c0 93 61 03 	sts	0x0361, r28
    2510:	80 91 65 03 	lds	r24, 0x0365
    2514:	90 91 66 03 	lds	r25, 0x0366
    2518:	44 df       	rcall	.-376    	; 0x23a2 <_Z16directionfetcherP3mapS0_>
    251a:	1c 16       	cp	r1, r28
    251c:	1d 06       	cpc	r1, r29
    251e:	8c f4       	brge	.+34     	; 0x2542 <_Z4mappP3mapS0_+0x6a>
    2520:	9e 01       	movw	r18, r28
    2522:	22 0f       	add	r18, r18
    2524:	33 1f       	adc	r19, r19
    2526:	dc 01       	movw	r26, r24
    2528:	a2 0f       	add	r26, r18
    252a:	b3 1f       	adc	r27, r19
    252c:	eb e9       	ldi	r30, 0x9B	; 155
    252e:	f2 e0       	ldi	r31, 0x02	; 2
    2530:	25 56       	subi	r18, 0x65	; 101
    2532:	3d 4f       	sbci	r19, 0xFD	; 253
    2534:	9e 91       	ld	r25, -X
    2536:	8e 91       	ld	r24, -X
    2538:	81 93       	st	Z+, r24
    253a:	91 93       	st	Z+, r25
    253c:	e2 17       	cp	r30, r18
    253e:	f3 07       	cpc	r31, r19
    2540:	c9 f7       	brne	.-14     	; 0x2534 <_Z4mappP3mapS0_+0x5c>
    2542:	df 91       	pop	r29
    2544:	cf 91       	pop	r28
    2546:	08 95       	ret

00002548 <_Z12lcd_set_4bitv>:
    2548:	86 e6       	ldi	r24, 0x66	; 102
    254a:	9e e0       	ldi	r25, 0x0E	; 14
    254c:	01 97       	sbiw	r24, 0x01	; 1
    254e:	f1 f7       	brne	.-4      	; 0x254c <_Z12lcd_set_4bitv+0x4>
    2550:	00 00       	nop
    2552:	40 98       	cbi	0x08, 0	; 8
    2554:	41 98       	cbi	0x08, 1	; 8
    2556:	80 e3       	ldi	r24, 0x30	; 48
    2558:	88 b9       	out	0x08, r24	; 8
    255a:	42 9a       	sbi	0x08, 2	; 8
    255c:	8f ef       	ldi	r24, 0xFF	; 255
    255e:	97 e4       	ldi	r25, 0x47	; 71
    2560:	01 97       	sbiw	r24, 0x01	; 1
    2562:	f1 f7       	brne	.-4      	; 0x2560 <_Z12lcd_set_4bitv+0x18>
    2564:	00 c0       	rjmp	.+0      	; 0x2566 <_Z12lcd_set_4bitv+0x1e>
    2566:	00 00       	nop
    2568:	42 98       	cbi	0x08, 2	; 8
    256a:	86 e6       	ldi	r24, 0x66	; 102
    256c:	9e e0       	ldi	r25, 0x0E	; 14
    256e:	01 97       	sbiw	r24, 0x01	; 1
    2570:	f1 f7       	brne	.-4      	; 0x256e <_Z12lcd_set_4bitv+0x26>
    2572:	00 00       	nop
    2574:	40 98       	cbi	0x08, 0	; 8
    2576:	41 98       	cbi	0x08, 1	; 8
    2578:	80 e3       	ldi	r24, 0x30	; 48
    257a:	88 b9       	out	0x08, r24	; 8
    257c:	42 9a       	sbi	0x08, 2	; 8
    257e:	8f ef       	ldi	r24, 0xFF	; 255
    2580:	97 e4       	ldi	r25, 0x47	; 71
    2582:	01 97       	sbiw	r24, 0x01	; 1
    2584:	f1 f7       	brne	.-4      	; 0x2582 <_Z12lcd_set_4bitv+0x3a>
    2586:	00 c0       	rjmp	.+0      	; 0x2588 <_Z12lcd_set_4bitv+0x40>
    2588:	00 00       	nop
    258a:	42 98       	cbi	0x08, 2	; 8
    258c:	86 e6       	ldi	r24, 0x66	; 102
    258e:	9e e0       	ldi	r25, 0x0E	; 14
    2590:	01 97       	sbiw	r24, 0x01	; 1
    2592:	f1 f7       	brne	.-4      	; 0x2590 <_Z12lcd_set_4bitv+0x48>
    2594:	00 00       	nop
    2596:	40 98       	cbi	0x08, 0	; 8
    2598:	41 98       	cbi	0x08, 1	; 8
    259a:	80 e3       	ldi	r24, 0x30	; 48
    259c:	88 b9       	out	0x08, r24	; 8
    259e:	42 9a       	sbi	0x08, 2	; 8
    25a0:	8f ef       	ldi	r24, 0xFF	; 255
    25a2:	97 e4       	ldi	r25, 0x47	; 71
    25a4:	01 97       	sbiw	r24, 0x01	; 1
    25a6:	f1 f7       	brne	.-4      	; 0x25a4 <_Z12lcd_set_4bitv+0x5c>
    25a8:	00 c0       	rjmp	.+0      	; 0x25aa <_Z12lcd_set_4bitv+0x62>
    25aa:	00 00       	nop
    25ac:	42 98       	cbi	0x08, 2	; 8
    25ae:	86 e6       	ldi	r24, 0x66	; 102
    25b0:	9e e0       	ldi	r25, 0x0E	; 14
    25b2:	01 97       	sbiw	r24, 0x01	; 1
    25b4:	f1 f7       	brne	.-4      	; 0x25b2 <_Z12lcd_set_4bitv+0x6a>
    25b6:	00 00       	nop
    25b8:	40 98       	cbi	0x08, 0	; 8
    25ba:	41 98       	cbi	0x08, 1	; 8
    25bc:	80 e2       	ldi	r24, 0x20	; 32
    25be:	88 b9       	out	0x08, r24	; 8
    25c0:	42 9a       	sbi	0x08, 2	; 8
    25c2:	8f ef       	ldi	r24, 0xFF	; 255
    25c4:	97 e4       	ldi	r25, 0x47	; 71
    25c6:	01 97       	sbiw	r24, 0x01	; 1
    25c8:	f1 f7       	brne	.-4      	; 0x25c6 <_Z12lcd_set_4bitv+0x7e>
    25ca:	00 c0       	rjmp	.+0      	; 0x25cc <_Z12lcd_set_4bitv+0x84>
    25cc:	00 00       	nop
    25ce:	42 98       	cbi	0x08, 2	; 8
    25d0:	08 95       	ret

000025d2 <_Z14lcd_wr_commandh>:
    25d2:	98 b1       	in	r25, 0x08	; 8
    25d4:	9f 70       	andi	r25, 0x0F	; 15
    25d6:	98 b9       	out	0x08, r25	; 8
    25d8:	98 b1       	in	r25, 0x08	; 8
    25da:	28 2f       	mov	r18, r24
    25dc:	20 7f       	andi	r18, 0xF0	; 240
    25de:	92 2b       	or	r25, r18
    25e0:	98 b9       	out	0x08, r25	; 8
    25e2:	40 98       	cbi	0x08, 0	; 8
    25e4:	41 98       	cbi	0x08, 1	; 8
    25e6:	42 9a       	sbi	0x08, 2	; 8
    25e8:	ef ef       	ldi	r30, 0xFF	; 255
    25ea:	f7 e4       	ldi	r31, 0x47	; 71
    25ec:	31 97       	sbiw	r30, 0x01	; 1
    25ee:	f1 f7       	brne	.-4      	; 0x25ec <_Z14lcd_wr_commandh+0x1a>
    25f0:	00 c0       	rjmp	.+0      	; 0x25f2 <_Z14lcd_wr_commandh+0x20>
    25f2:	00 00       	nop
    25f4:	42 98       	cbi	0x08, 2	; 8
    25f6:	98 b1       	in	r25, 0x08	; 8
    25f8:	9f 70       	andi	r25, 0x0F	; 15
    25fa:	98 b9       	out	0x08, r25	; 8
    25fc:	98 b1       	in	r25, 0x08	; 8
    25fe:	82 95       	swap	r24
    2600:	80 7f       	andi	r24, 0xF0	; 240
    2602:	89 2b       	or	r24, r25
    2604:	88 b9       	out	0x08, r24	; 8
    2606:	40 98       	cbi	0x08, 0	; 8
    2608:	41 98       	cbi	0x08, 1	; 8
    260a:	42 9a       	sbi	0x08, 2	; 8
    260c:	8f ef       	ldi	r24, 0xFF	; 255
    260e:	97 e4       	ldi	r25, 0x47	; 71
    2610:	01 97       	sbiw	r24, 0x01	; 1
    2612:	f1 f7       	brne	.-4      	; 0x2610 <_Z14lcd_wr_commandh+0x3e>
    2614:	00 c0       	rjmp	.+0      	; 0x2616 <_Z14lcd_wr_commandh+0x44>
    2616:	00 00       	nop
    2618:	42 98       	cbi	0x08, 2	; 8
    261a:	08 95       	ret

0000261c <_Z8lcd_initv>:
    261c:	95 df       	rcall	.-214    	; 0x2548 <_Z12lcd_set_4bitv>
    261e:	86 e6       	ldi	r24, 0x66	; 102
    2620:	9e e0       	ldi	r25, 0x0E	; 14
    2622:	01 97       	sbiw	r24, 0x01	; 1
    2624:	f1 f7       	brne	.-4      	; 0x2622 <_Z8lcd_initv+0x6>
    2626:	00 00       	nop
    2628:	88 e2       	ldi	r24, 0x28	; 40
    262a:	d3 df       	rcall	.-90     	; 0x25d2 <_Z14lcd_wr_commandh>
    262c:	81 e0       	ldi	r24, 0x01	; 1
    262e:	d1 df       	rcall	.-94     	; 0x25d2 <_Z14lcd_wr_commandh>
    2630:	86 e0       	ldi	r24, 0x06	; 6
    2632:	cf df       	rcall	.-98     	; 0x25d2 <_Z14lcd_wr_commandh>
    2634:	8e e0       	ldi	r24, 0x0E	; 14
    2636:	cd df       	rcall	.-102    	; 0x25d2 <_Z14lcd_wr_commandh>
    2638:	80 e8       	ldi	r24, 0x80	; 128
    263a:	cb cf       	rjmp	.-106    	; 0x25d2 <_Z14lcd_wr_commandh>
    263c:	08 95       	ret

0000263e <_Z11lcd_wr_charc>:
    263e:	98 b1       	in	r25, 0x08	; 8
    2640:	9f 70       	andi	r25, 0x0F	; 15
    2642:	98 b9       	out	0x08, r25	; 8
    2644:	98 b1       	in	r25, 0x08	; 8
    2646:	28 2f       	mov	r18, r24
    2648:	20 7f       	andi	r18, 0xF0	; 240
    264a:	92 2b       	or	r25, r18
    264c:	98 b9       	out	0x08, r25	; 8
    264e:	40 9a       	sbi	0x08, 0	; 8
    2650:	41 98       	cbi	0x08, 1	; 8
    2652:	42 9a       	sbi	0x08, 2	; 8
    2654:	ef ef       	ldi	r30, 0xFF	; 255
    2656:	f7 e4       	ldi	r31, 0x47	; 71
    2658:	31 97       	sbiw	r30, 0x01	; 1
    265a:	f1 f7       	brne	.-4      	; 0x2658 <_Z11lcd_wr_charc+0x1a>
    265c:	00 c0       	rjmp	.+0      	; 0x265e <_Z11lcd_wr_charc+0x20>
    265e:	00 00       	nop
    2660:	42 98       	cbi	0x08, 2	; 8
    2662:	98 b1       	in	r25, 0x08	; 8
    2664:	9f 70       	andi	r25, 0x0F	; 15
    2666:	98 b9       	out	0x08, r25	; 8
    2668:	98 b1       	in	r25, 0x08	; 8
    266a:	82 95       	swap	r24
    266c:	80 7f       	andi	r24, 0xF0	; 240
    266e:	89 2b       	or	r24, r25
    2670:	88 b9       	out	0x08, r24	; 8
    2672:	40 9a       	sbi	0x08, 0	; 8
    2674:	41 98       	cbi	0x08, 1	; 8
    2676:	42 9a       	sbi	0x08, 2	; 8
    2678:	8f ef       	ldi	r24, 0xFF	; 255
    267a:	97 e4       	ldi	r25, 0x47	; 71
    267c:	01 97       	sbiw	r24, 0x01	; 1
    267e:	f1 f7       	brne	.-4      	; 0x267c <_Z11lcd_wr_charc+0x3e>
    2680:	00 c0       	rjmp	.+0      	; 0x2682 <_Z11lcd_wr_charc+0x44>
    2682:	00 00       	nop
    2684:	42 98       	cbi	0x08, 2	; 8
    2686:	08 95       	ret

00002688 <_Z8lcd_homev>:
    2688:	80 e8       	ldi	r24, 0x80	; 128
    268a:	a3 cf       	rjmp	.-186    	; 0x25d2 <_Z14lcd_wr_commandh>
    268c:	08 95       	ret

0000268e <_Z10lcd_stringPKc>:
    268e:	cf 93       	push	r28
    2690:	df 93       	push	r29
    2692:	ec 01       	movw	r28, r24
    2694:	88 81       	ld	r24, Y
    2696:	88 23       	and	r24, r24
    2698:	29 f0       	breq	.+10     	; 0x26a4 <_Z10lcd_stringPKc+0x16>
    269a:	21 96       	adiw	r28, 0x01	; 1
    269c:	d0 df       	rcall	.-96     	; 0x263e <_Z11lcd_wr_charc>
    269e:	89 91       	ld	r24, Y+
    26a0:	81 11       	cpse	r24, r1
    26a2:	fc cf       	rjmp	.-8      	; 0x269c <_Z10lcd_stringPKc+0xe>
    26a4:	df 91       	pop	r29
    26a6:	cf 91       	pop	r28
    26a8:	08 95       	ret

000026aa <_Z10lcd_cursorcc>:
    26aa:	82 30       	cpi	r24, 0x02	; 2
    26ac:	69 f0       	breq	.+26     	; 0x26c8 <_Z10lcd_cursorcc+0x1e>
    26ae:	18 f4       	brcc	.+6      	; 0x26b6 <_Z10lcd_cursorcc+0xc>
    26b0:	81 30       	cpi	r24, 0x01	; 1
    26b2:	31 f0       	breq	.+12     	; 0x26c0 <_Z10lcd_cursorcc+0x16>
    26b4:	08 95       	ret
    26b6:	83 30       	cpi	r24, 0x03	; 3
    26b8:	59 f0       	breq	.+22     	; 0x26d0 <_Z10lcd_cursorcc+0x26>
    26ba:	84 30       	cpi	r24, 0x04	; 4
    26bc:	69 f0       	breq	.+26     	; 0x26d8 <_Z10lcd_cursorcc+0x2e>
    26be:	08 95       	ret
    26c0:	8f e7       	ldi	r24, 0x7F	; 127
    26c2:	86 0f       	add	r24, r22
    26c4:	86 cf       	rjmp	.-244    	; 0x25d2 <_Z14lcd_wr_commandh>
    26c6:	08 95       	ret
    26c8:	8f eb       	ldi	r24, 0xBF	; 191
    26ca:	86 0f       	add	r24, r22
    26cc:	82 cf       	rjmp	.-252    	; 0x25d2 <_Z14lcd_wr_commandh>
    26ce:	08 95       	ret
    26d0:	83 e9       	ldi	r24, 0x93	; 147
    26d2:	86 0f       	add	r24, r22
    26d4:	7e cf       	rjmp	.-260    	; 0x25d2 <_Z14lcd_wr_commandh>
    26d6:	08 95       	ret
    26d8:	83 ed       	ldi	r24, 0xD3	; 211
    26da:	86 0f       	add	r24, r22
    26dc:	7a cf       	rjmp	.-268    	; 0x25d2 <_Z14lcd_wr_commandh>
    26de:	08 95       	ret

000026e0 <_Z9lcd_printccji>:
    26e0:	0f 93       	push	r16
    26e2:	1f 93       	push	r17
    26e4:	cf 93       	push	r28
    26e6:	df 93       	push	r29
    26e8:	8a 01       	movw	r16, r20
    26ea:	e9 01       	movw	r28, r18
    26ec:	88 23       	and	r24, r24
    26ee:	11 f0       	breq	.+4      	; 0x26f4 <_Z9lcd_printccji+0x14>
    26f0:	61 11       	cpse	r22, r1
    26f2:	02 c0       	rjmp	.+4      	; 0x26f8 <_Z9lcd_printccji+0x18>
    26f4:	c9 df       	rcall	.-110    	; 0x2688 <_Z8lcd_homev>
    26f6:	01 c0       	rjmp	.+2      	; 0x26fa <_Z9lcd_printccji+0x1a>
    26f8:	d8 df       	rcall	.-80     	; 0x26aa <_Z10lcd_cursorcc>
    26fa:	c5 30       	cpi	r28, 0x05	; 5
    26fc:	d1 05       	cpc	r29, r1
    26fe:	09 f0       	breq	.+2      	; 0x2702 <_Z9lcd_printccji+0x22>
    2700:	d5 c0       	rjmp	.+426    	; 0x28ac <_Z9lcd_printccji+0x1cc>
    2702:	98 01       	movw	r18, r16
    2704:	32 95       	swap	r19
    2706:	22 95       	swap	r18
    2708:	2f 70       	andi	r18, 0x0F	; 15
    270a:	23 27       	eor	r18, r19
    270c:	3f 70       	andi	r19, 0x0F	; 15
    270e:	23 27       	eor	r18, r19
    2710:	a7 e4       	ldi	r26, 0x47	; 71
    2712:	b3 e0       	ldi	r27, 0x03	; 3
    2714:	0e 94 c2 23 	call	0x4784	; 0x4784 <__umulhisi3>
    2718:	96 95       	lsr	r25
    271a:	87 95       	ror	r24
    271c:	96 95       	lsr	r25
    271e:	87 95       	ror	r24
    2720:	96 95       	lsr	r25
    2722:	87 95       	ror	r24
    2724:	c0 96       	adiw	r24, 0x30	; 48
    2726:	90 93 90 02 	sts	0x0290, r25
    272a:	80 93 8f 02 	sts	0x028F, r24
    272e:	87 df       	rcall	.-242    	; 0x263e <_Z11lcd_wr_charc>
    2730:	98 01       	movw	r18, r16
    2732:	36 95       	lsr	r19
    2734:	27 95       	ror	r18
    2736:	36 95       	lsr	r19
    2738:	27 95       	ror	r18
    273a:	36 95       	lsr	r19
    273c:	27 95       	ror	r18
    273e:	a5 ec       	ldi	r26, 0xC5	; 197
    2740:	b0 e2       	ldi	r27, 0x20	; 32
    2742:	0e 94 c2 23 	call	0x4784	; 0x4784 <__umulhisi3>
    2746:	ac 01       	movw	r20, r24
    2748:	52 95       	swap	r21
    274a:	42 95       	swap	r20
    274c:	4f 70       	andi	r20, 0x0F	; 15
    274e:	45 27       	eor	r20, r21
    2750:	5f 70       	andi	r21, 0x0F	; 15
    2752:	45 27       	eor	r20, r21
    2754:	50 93 9a 02 	sts	0x029A, r21
    2758:	40 93 99 02 	sts	0x0299, r20
    275c:	9a 01       	movw	r18, r20
    275e:	ad ec       	ldi	r26, 0xCD	; 205
    2760:	bc ec       	ldi	r27, 0xCC	; 204
    2762:	0e 94 c2 23 	call	0x4784	; 0x4784 <__umulhisi3>
    2766:	96 95       	lsr	r25
    2768:	87 95       	ror	r24
    276a:	96 95       	lsr	r25
    276c:	87 95       	ror	r24
    276e:	96 95       	lsr	r25
    2770:	87 95       	ror	r24
    2772:	9c 01       	movw	r18, r24
    2774:	22 0f       	add	r18, r18
    2776:	33 1f       	adc	r19, r19
    2778:	88 0f       	add	r24, r24
    277a:	99 1f       	adc	r25, r25
    277c:	88 0f       	add	r24, r24
    277e:	99 1f       	adc	r25, r25
    2780:	88 0f       	add	r24, r24
    2782:	99 1f       	adc	r25, r25
    2784:	82 0f       	add	r24, r18
    2786:	93 1f       	adc	r25, r19
    2788:	48 1b       	sub	r20, r24
    278a:	59 0b       	sbc	r21, r25
    278c:	ca 01       	movw	r24, r20
    278e:	c0 96       	adiw	r24, 0x30	; 48
    2790:	90 93 92 02 	sts	0x0292, r25
    2794:	80 93 91 02 	sts	0x0291, r24
    2798:	52 df       	rcall	.-348    	; 0x263e <_Z11lcd_wr_charc>
    279a:	04 c0       	rjmp	.+8      	; 0x27a4 <_Z9lcd_printccji+0xc4>
    279c:	c3 30       	cpi	r28, 0x03	; 3
    279e:	d1 05       	cpc	r29, r1
    27a0:	09 f0       	breq	.+2      	; 0x27a4 <_Z9lcd_printccji+0xc4>
    27a2:	89 c0       	rjmp	.+274    	; 0x28b6 <_Z9lcd_printccji+0x1d6>
    27a4:	98 01       	movw	r18, r16
    27a6:	36 95       	lsr	r19
    27a8:	27 95       	ror	r18
    27aa:	36 95       	lsr	r19
    27ac:	27 95       	ror	r18
    27ae:	ab e7       	ldi	r26, 0x7B	; 123
    27b0:	b4 e1       	ldi	r27, 0x14	; 20
    27b2:	0e 94 c2 23 	call	0x4784	; 0x4784 <__umulhisi3>
    27b6:	ac 01       	movw	r20, r24
    27b8:	56 95       	lsr	r21
    27ba:	47 95       	ror	r20
    27bc:	50 93 9a 02 	sts	0x029A, r21
    27c0:	40 93 99 02 	sts	0x0299, r20
    27c4:	9a 01       	movw	r18, r20
    27c6:	ad ec       	ldi	r26, 0xCD	; 205
    27c8:	bc ec       	ldi	r27, 0xCC	; 204
    27ca:	0e 94 c2 23 	call	0x4784	; 0x4784 <__umulhisi3>
    27ce:	96 95       	lsr	r25
    27d0:	87 95       	ror	r24
    27d2:	96 95       	lsr	r25
    27d4:	87 95       	ror	r24
    27d6:	96 95       	lsr	r25
    27d8:	87 95       	ror	r24
    27da:	9c 01       	movw	r18, r24
    27dc:	22 0f       	add	r18, r18
    27de:	33 1f       	adc	r19, r19
    27e0:	88 0f       	add	r24, r24
    27e2:	99 1f       	adc	r25, r25
    27e4:	88 0f       	add	r24, r24
    27e6:	99 1f       	adc	r25, r25
    27e8:	88 0f       	add	r24, r24
    27ea:	99 1f       	adc	r25, r25
    27ec:	82 0f       	add	r24, r18
    27ee:	93 1f       	adc	r25, r19
    27f0:	48 1b       	sub	r20, r24
    27f2:	59 0b       	sbc	r21, r25
    27f4:	ca 01       	movw	r24, r20
    27f6:	c0 96       	adiw	r24, 0x30	; 48
    27f8:	90 93 94 02 	sts	0x0294, r25
    27fc:	80 93 93 02 	sts	0x0293, r24
    2800:	1e df       	rcall	.-452    	; 0x263e <_Z11lcd_wr_charc>
    2802:	98 01       	movw	r18, r16
    2804:	ad ec       	ldi	r26, 0xCD	; 205
    2806:	bc ec       	ldi	r27, 0xCC	; 204
    2808:	0e 94 c2 23 	call	0x4784	; 0x4784 <__umulhisi3>
    280c:	ac 01       	movw	r20, r24
    280e:	56 95       	lsr	r21
    2810:	47 95       	ror	r20
    2812:	56 95       	lsr	r21
    2814:	47 95       	ror	r20
    2816:	56 95       	lsr	r21
    2818:	47 95       	ror	r20
    281a:	50 93 9a 02 	sts	0x029A, r21
    281e:	40 93 99 02 	sts	0x0299, r20
    2822:	9a 01       	movw	r18, r20
    2824:	0e 94 c2 23 	call	0x4784	; 0x4784 <__umulhisi3>
    2828:	96 95       	lsr	r25
    282a:	87 95       	ror	r24
    282c:	96 95       	lsr	r25
    282e:	87 95       	ror	r24
    2830:	96 95       	lsr	r25
    2832:	87 95       	ror	r24
    2834:	9c 01       	movw	r18, r24
    2836:	22 0f       	add	r18, r18
    2838:	33 1f       	adc	r19, r19
    283a:	88 0f       	add	r24, r24
    283c:	99 1f       	adc	r25, r25
    283e:	88 0f       	add	r24, r24
    2840:	99 1f       	adc	r25, r25
    2842:	88 0f       	add	r24, r24
    2844:	99 1f       	adc	r25, r25
    2846:	82 0f       	add	r24, r18
    2848:	93 1f       	adc	r25, r19
    284a:	48 1b       	sub	r20, r24
    284c:	59 0b       	sbc	r21, r25
    284e:	ca 01       	movw	r24, r20
    2850:	c0 96       	adiw	r24, 0x30	; 48
    2852:	90 93 96 02 	sts	0x0296, r25
    2856:	80 93 95 02 	sts	0x0295, r24
    285a:	f1 de       	rcall	.-542    	; 0x263e <_Z11lcd_wr_charc>
    285c:	03 c0       	rjmp	.+6      	; 0x2864 <_Z9lcd_printccji+0x184>
    285e:	c1 30       	cpi	r28, 0x01	; 1
    2860:	d1 05       	cpc	r29, r1
    2862:	f9 f4       	brne	.+62     	; 0x28a2 <_Z9lcd_printccji+0x1c2>
    2864:	98 01       	movw	r18, r16
    2866:	ad ec       	ldi	r26, 0xCD	; 205
    2868:	bc ec       	ldi	r27, 0xCC	; 204
    286a:	0e 94 c2 23 	call	0x4784	; 0x4784 <__umulhisi3>
    286e:	96 95       	lsr	r25
    2870:	87 95       	ror	r24
    2872:	96 95       	lsr	r25
    2874:	87 95       	ror	r24
    2876:	96 95       	lsr	r25
    2878:	87 95       	ror	r24
    287a:	9c 01       	movw	r18, r24
    287c:	22 0f       	add	r18, r18
    287e:	33 1f       	adc	r19, r19
    2880:	88 0f       	add	r24, r24
    2882:	99 1f       	adc	r25, r25
    2884:	88 0f       	add	r24, r24
    2886:	99 1f       	adc	r25, r25
    2888:	88 0f       	add	r24, r24
    288a:	99 1f       	adc	r25, r25
    288c:	82 0f       	add	r24, r18
    288e:	93 1f       	adc	r25, r19
    2890:	08 1b       	sub	r16, r24
    2892:	19 0b       	sbc	r17, r25
    2894:	c8 01       	movw	r24, r16
    2896:	c0 96       	adiw	r24, 0x30	; 48
    2898:	90 93 98 02 	sts	0x0298, r25
    289c:	80 93 97 02 	sts	0x0297, r24
    28a0:	ce de       	rcall	.-612    	; 0x263e <_Z11lcd_wr_charc>
    28a2:	26 97       	sbiw	r28, 0x06	; 6
    28a4:	64 f0       	brlt	.+24     	; 0x28be <_Z9lcd_printccji+0x1de>
    28a6:	85 e4       	ldi	r24, 0x45	; 69
    28a8:	ca de       	rcall	.-620    	; 0x263e <_Z11lcd_wr_charc>
    28aa:	09 c0       	rjmp	.+18     	; 0x28be <_Z9lcd_printccji+0x1de>
    28ac:	c4 30       	cpi	r28, 0x04	; 4
    28ae:	d1 05       	cpc	r29, r1
    28b0:	09 f0       	breq	.+2      	; 0x28b4 <_Z9lcd_printccji+0x1d4>
    28b2:	74 cf       	rjmp	.-280    	; 0x279c <_Z9lcd_printccji+0xbc>
    28b4:	3d cf       	rjmp	.-390    	; 0x2730 <_Z9lcd_printccji+0x50>
    28b6:	c2 30       	cpi	r28, 0x02	; 2
    28b8:	d1 05       	cpc	r29, r1
    28ba:	89 f6       	brne	.-94     	; 0x285e <_Z9lcd_printccji+0x17e>
    28bc:	a2 cf       	rjmp	.-188    	; 0x2802 <_Z9lcd_printccji+0x122>
    28be:	df 91       	pop	r29
    28c0:	cf 91       	pop	r28
    28c2:	1f 91       	pop	r17
    28c4:	0f 91       	pop	r16
    28c6:	08 95       	ret

000028c8 <_Z15lcd_port_configv>:
    28c8:	87 b1       	in	r24, 0x07	; 7
    28ca:	87 6f       	ori	r24, 0xF7	; 247
    28cc:	87 b9       	out	0x07, r24	; 7
    28ce:	88 b1       	in	r24, 0x08	; 8
    28d0:	80 78       	andi	r24, 0x80	; 128
    28d2:	88 b9       	out	0x08, r24	; 8
    28d4:	08 95       	ret

000028d6 <_Z23color_sensor_pin_configv>:
    28d6:	8a b1       	in	r24, 0x0a	; 10
    28d8:	8e 6f       	ori	r24, 0xFE	; 254
    28da:	8a b9       	out	0x0a, r24	; 10
    28dc:	58 9a       	sbi	0x0b, 0	; 11
    28de:	08 95       	ret

000028e0 <_Z15port_init_colorv>:
    28e0:	f3 df       	rcall	.-26     	; 0x28c8 <_Z15lcd_port_configv>
    28e2:	f9 cf       	rjmp	.-14     	; 0x28d6 <_Z23color_sensor_pin_configv>
    28e4:	08 95       	ret

000028e6 <_Z31color_sensor_pin_interrupt_initv>:
    28e6:	f8 94       	cli
    28e8:	e9 e6       	ldi	r30, 0x69	; 105
    28ea:	f0 e0       	ldi	r31, 0x00	; 0
    28ec:	80 81       	ld	r24, Z
    28ee:	82 60       	ori	r24, 0x02	; 2
    28f0:	80 83       	st	Z, r24
    28f2:	e8 9a       	sbi	0x1d, 0	; 29
    28f4:	78 94       	sei
    28f6:	08 95       	ret

000028f8 <__vector_1>:
    28f8:	1f 92       	push	r1
    28fa:	0f 92       	push	r0
    28fc:	0f b6       	in	r0, 0x3f	; 63
    28fe:	0f 92       	push	r0
    2900:	11 24       	eor	r1, r1
    2902:	8f 93       	push	r24
    2904:	9f 93       	push	r25
    2906:	af 93       	push	r26
    2908:	bf 93       	push	r27
    290a:	80 91 8b 02 	lds	r24, 0x028B
    290e:	90 91 8c 02 	lds	r25, 0x028C
    2912:	a0 91 8d 02 	lds	r26, 0x028D
    2916:	b0 91 8e 02 	lds	r27, 0x028E
    291a:	01 96       	adiw	r24, 0x01	; 1
    291c:	a1 1d       	adc	r26, r1
    291e:	b1 1d       	adc	r27, r1
    2920:	80 93 8b 02 	sts	0x028B, r24
    2924:	90 93 8c 02 	sts	0x028C, r25
    2928:	a0 93 8d 02 	sts	0x028D, r26
    292c:	b0 93 8e 02 	sts	0x028E, r27
    2930:	bf 91       	pop	r27
    2932:	af 91       	pop	r26
    2934:	9f 91       	pop	r25
    2936:	8f 91       	pop	r24
    2938:	0f 90       	pop	r0
    293a:	0f be       	out	0x3f, r0	; 63
    293c:	0f 90       	pop	r0
    293e:	1f 90       	pop	r1
    2940:	18 95       	reti

00002942 <_Z18init_devices_colorv>:
    2942:	f8 94       	cli
    2944:	cd df       	rcall	.-102    	; 0x28e0 <_Z15port_init_colorv>
    2946:	cf df       	rcall	.-98     	; 0x28e6 <_Z31color_sensor_pin_interrupt_initv>
    2948:	78 94       	sei
    294a:	08 95       	ret

0000294c <_Z10filter_redv>:
    294c:	5e 98       	cbi	0x0b, 6	; 11
    294e:	5f 98       	cbi	0x0b, 7	; 11
    2950:	08 95       	ret

00002952 <_Z12filter_greenv>:
    2952:	5e 9a       	sbi	0x0b, 6	; 11
    2954:	5f 9a       	sbi	0x0b, 7	; 11
    2956:	08 95       	ret

00002958 <_Z11filter_bluev>:
    2958:	5e 98       	cbi	0x0b, 6	; 11
    295a:	5f 9a       	sbi	0x0b, 7	; 11
    295c:	08 95       	ret

0000295e <_Z20color_sensor_scalingv>:
    295e:	5c 9a       	sbi	0x0b, 4	; 11
    2960:	5d 9a       	sbi	0x0b, 5	; 11
    2962:	08 95       	ret

00002964 <_Z8red_readv>:
    2964:	f3 df       	rcall	.-26     	; 0x294c <_Z10filter_redv>
    2966:	10 92 8b 02 	sts	0x028B, r1
    296a:	10 92 8c 02 	sts	0x028C, r1
    296e:	10 92 8d 02 	sts	0x028D, r1
    2972:	10 92 8e 02 	sts	0x028E, r1
    2976:	2f ef       	ldi	r18, 0xFF	; 255
    2978:	8f e7       	ldi	r24, 0x7F	; 127
    297a:	94 e0       	ldi	r25, 0x04	; 4
    297c:	21 50       	subi	r18, 0x01	; 1
    297e:	80 40       	sbci	r24, 0x00	; 0
    2980:	90 40       	sbci	r25, 0x00	; 0
    2982:	e1 f7       	brne	.-8      	; 0x297c <_Z8red_readv+0x18>
    2984:	00 c0       	rjmp	.+0      	; 0x2986 <_Z8red_readv+0x22>
    2986:	00 00       	nop
    2988:	80 91 8b 02 	lds	r24, 0x028B
    298c:	90 91 8c 02 	lds	r25, 0x028C
    2990:	a0 91 8d 02 	lds	r26, 0x028D
    2994:	b0 91 8e 02 	lds	r27, 0x028E
    2998:	80 93 87 02 	sts	0x0287, r24
    299c:	90 93 88 02 	sts	0x0288, r25
    29a0:	a0 93 89 02 	sts	0x0289, r26
    29a4:	b0 93 8a 02 	sts	0x028A, r27
    29a8:	61 e0       	ldi	r22, 0x01	; 1
    29aa:	81 e0       	ldi	r24, 0x01	; 1
    29ac:	7e de       	rcall	.-772    	; 0x26aa <_Z10lcd_cursorcc>
    29ae:	87 e1       	ldi	r24, 0x17	; 23
    29b0:	92 e0       	ldi	r25, 0x02	; 2
    29b2:	6d de       	rcall	.-806    	; 0x268e <_Z10lcd_stringPKc>
    29b4:	40 91 87 02 	lds	r20, 0x0287
    29b8:	50 91 88 02 	lds	r21, 0x0288
    29bc:	60 91 89 02 	lds	r22, 0x0289
    29c0:	70 91 8a 02 	lds	r23, 0x028A
    29c4:	25 e0       	ldi	r18, 0x05	; 5
    29c6:	30 e0       	ldi	r19, 0x00	; 0
    29c8:	61 e0       	ldi	r22, 0x01	; 1
    29ca:	82 e0       	ldi	r24, 0x02	; 2
    29cc:	89 de       	rcall	.-750    	; 0x26e0 <_Z9lcd_printccji>
    29ce:	2f ef       	ldi	r18, 0xFF	; 255
    29d0:	8f ef       	ldi	r24, 0xFF	; 255
    29d2:	9c e2       	ldi	r25, 0x2C	; 44
    29d4:	21 50       	subi	r18, 0x01	; 1
    29d6:	80 40       	sbci	r24, 0x00	; 0
    29d8:	90 40       	sbci	r25, 0x00	; 0
    29da:	e1 f7       	brne	.-8      	; 0x29d4 <_Z8red_readv+0x70>
    29dc:	00 c0       	rjmp	.+0      	; 0x29de <_Z8red_readv+0x7a>
    29de:	00 00       	nop
    29e0:	81 e0       	ldi	r24, 0x01	; 1
    29e2:	f7 cd       	rjmp	.-1042   	; 0x25d2 <_Z14lcd_wr_commandh>
    29e4:	08 95       	ret

000029e6 <_Z10green_readv>:
    29e6:	b5 df       	rcall	.-150    	; 0x2952 <_Z12filter_greenv>
    29e8:	10 92 8b 02 	sts	0x028B, r1
    29ec:	10 92 8c 02 	sts	0x028C, r1
    29f0:	10 92 8d 02 	sts	0x028D, r1
    29f4:	10 92 8e 02 	sts	0x028E, r1
    29f8:	2f ef       	ldi	r18, 0xFF	; 255
    29fa:	8f e7       	ldi	r24, 0x7F	; 127
    29fc:	94 e0       	ldi	r25, 0x04	; 4
    29fe:	21 50       	subi	r18, 0x01	; 1
    2a00:	80 40       	sbci	r24, 0x00	; 0
    2a02:	90 40       	sbci	r25, 0x00	; 0
    2a04:	e1 f7       	brne	.-8      	; 0x29fe <_Z10green_readv+0x18>
    2a06:	00 c0       	rjmp	.+0      	; 0x2a08 <_Z10green_readv+0x22>
    2a08:	00 00       	nop
    2a0a:	80 91 8b 02 	lds	r24, 0x028B
    2a0e:	90 91 8c 02 	lds	r25, 0x028C
    2a12:	a0 91 8d 02 	lds	r26, 0x028D
    2a16:	b0 91 8e 02 	lds	r27, 0x028E
    2a1a:	80 93 7f 02 	sts	0x027F, r24
    2a1e:	90 93 80 02 	sts	0x0280, r25
    2a22:	a0 93 81 02 	sts	0x0281, r26
    2a26:	b0 93 82 02 	sts	0x0282, r27
    2a2a:	61 e0       	ldi	r22, 0x01	; 1
    2a2c:	81 e0       	ldi	r24, 0x01	; 1
    2a2e:	3d de       	rcall	.-902    	; 0x26aa <_Z10lcd_cursorcc>
    2a30:	82 e2       	ldi	r24, 0x22	; 34
    2a32:	92 e0       	ldi	r25, 0x02	; 2
    2a34:	2c de       	rcall	.-936    	; 0x268e <_Z10lcd_stringPKc>
    2a36:	40 91 7f 02 	lds	r20, 0x027F
    2a3a:	50 91 80 02 	lds	r21, 0x0280
    2a3e:	60 91 81 02 	lds	r22, 0x0281
    2a42:	70 91 82 02 	lds	r23, 0x0282
    2a46:	25 e0       	ldi	r18, 0x05	; 5
    2a48:	30 e0       	ldi	r19, 0x00	; 0
    2a4a:	61 e0       	ldi	r22, 0x01	; 1
    2a4c:	82 e0       	ldi	r24, 0x02	; 2
    2a4e:	48 de       	rcall	.-880    	; 0x26e0 <_Z9lcd_printccji>
    2a50:	2f ef       	ldi	r18, 0xFF	; 255
    2a52:	8f ef       	ldi	r24, 0xFF	; 255
    2a54:	9c e2       	ldi	r25, 0x2C	; 44
    2a56:	21 50       	subi	r18, 0x01	; 1
    2a58:	80 40       	sbci	r24, 0x00	; 0
    2a5a:	90 40       	sbci	r25, 0x00	; 0
    2a5c:	e1 f7       	brne	.-8      	; 0x2a56 <_Z10green_readv+0x70>
    2a5e:	00 c0       	rjmp	.+0      	; 0x2a60 <_Z10green_readv+0x7a>
    2a60:	00 00       	nop
    2a62:	81 e0       	ldi	r24, 0x01	; 1
    2a64:	b6 cd       	rjmp	.-1172   	; 0x25d2 <_Z14lcd_wr_commandh>
    2a66:	08 95       	ret

00002a68 <_Z9blue_readv>:
    2a68:	77 df       	rcall	.-274    	; 0x2958 <_Z11filter_bluev>
    2a6a:	10 92 8b 02 	sts	0x028B, r1
    2a6e:	10 92 8c 02 	sts	0x028C, r1
    2a72:	10 92 8d 02 	sts	0x028D, r1
    2a76:	10 92 8e 02 	sts	0x028E, r1
    2a7a:	2f ef       	ldi	r18, 0xFF	; 255
    2a7c:	8f e7       	ldi	r24, 0x7F	; 127
    2a7e:	94 e0       	ldi	r25, 0x04	; 4
    2a80:	21 50       	subi	r18, 0x01	; 1
    2a82:	80 40       	sbci	r24, 0x00	; 0
    2a84:	90 40       	sbci	r25, 0x00	; 0
    2a86:	e1 f7       	brne	.-8      	; 0x2a80 <_Z9blue_readv+0x18>
    2a88:	00 c0       	rjmp	.+0      	; 0x2a8a <_Z9blue_readv+0x22>
    2a8a:	00 00       	nop
    2a8c:	80 91 8b 02 	lds	r24, 0x028B
    2a90:	90 91 8c 02 	lds	r25, 0x028C
    2a94:	a0 91 8d 02 	lds	r26, 0x028D
    2a98:	b0 91 8e 02 	lds	r27, 0x028E
    2a9c:	80 93 83 02 	sts	0x0283, r24
    2aa0:	90 93 84 02 	sts	0x0284, r25
    2aa4:	a0 93 85 02 	sts	0x0285, r26
    2aa8:	b0 93 86 02 	sts	0x0286, r27
    2aac:	61 e0       	ldi	r22, 0x01	; 1
    2aae:	81 e0       	ldi	r24, 0x01	; 1
    2ab0:	fc dd       	rcall	.-1032   	; 0x26aa <_Z10lcd_cursorcc>
    2ab2:	8f e2       	ldi	r24, 0x2F	; 47
    2ab4:	92 e0       	ldi	r25, 0x02	; 2
    2ab6:	eb dd       	rcall	.-1066   	; 0x268e <_Z10lcd_stringPKc>
    2ab8:	40 91 83 02 	lds	r20, 0x0283
    2abc:	50 91 84 02 	lds	r21, 0x0284
    2ac0:	60 91 85 02 	lds	r22, 0x0285
    2ac4:	70 91 86 02 	lds	r23, 0x0286
    2ac8:	25 e0       	ldi	r18, 0x05	; 5
    2aca:	30 e0       	ldi	r19, 0x00	; 0
    2acc:	61 e0       	ldi	r22, 0x01	; 1
    2ace:	82 e0       	ldi	r24, 0x02	; 2
    2ad0:	07 de       	rcall	.-1010   	; 0x26e0 <_Z9lcd_printccji>
    2ad2:	2f ef       	ldi	r18, 0xFF	; 255
    2ad4:	8f ef       	ldi	r24, 0xFF	; 255
    2ad6:	9c e2       	ldi	r25, 0x2C	; 44
    2ad8:	21 50       	subi	r18, 0x01	; 1
    2ada:	80 40       	sbci	r24, 0x00	; 0
    2adc:	90 40       	sbci	r25, 0x00	; 0
    2ade:	e1 f7       	brne	.-8      	; 0x2ad8 <_Z9blue_readv+0x70>
    2ae0:	00 c0       	rjmp	.+0      	; 0x2ae2 <_Z9blue_readv+0x7a>
    2ae2:	00 00       	nop
    2ae4:	81 e0       	ldi	r24, 0x01	; 1
    2ae6:	75 cd       	rjmp	.-1302   	; 0x25d2 <_Z14lcd_wr_commandh>
    2ae8:	08 95       	ret

00002aea <_Z17servo1_pin_configv>:
    2aea:	25 9a       	sbi	0x04, 5	; 4
    2aec:	2d 9a       	sbi	0x05, 5	; 5
    2aee:	08 95       	ret

00002af0 <_Z17servo2_pin_configv>:
    2af0:	26 9a       	sbi	0x04, 6	; 4
    2af2:	2e 9a       	sbi	0x05, 6	; 5
    2af4:	08 95       	ret

00002af6 <_Z15port_init_servov>:
    2af6:	f9 df       	rcall	.-14     	; 0x2aea <_Z17servo1_pin_configv>
    2af8:	fb cf       	rjmp	.-10     	; 0x2af0 <_Z17servo2_pin_configv>
    2afa:	08 95       	ret

00002afc <_Z8pwm_initv>:
    2afc:	e1 e8       	ldi	r30, 0x81	; 129
    2afe:	f0 e0       	ldi	r31, 0x00	; 0
    2b00:	10 82       	st	Z, r1
    2b02:	8c ef       	ldi	r24, 0xFC	; 252
    2b04:	80 93 85 00 	sts	0x0085, r24
    2b08:	81 e0       	ldi	r24, 0x01	; 1
    2b0a:	80 93 84 00 	sts	0x0084, r24
    2b0e:	93 e0       	ldi	r25, 0x03	; 3
    2b10:	90 93 89 00 	sts	0x0089, r25
    2b14:	8f ef       	ldi	r24, 0xFF	; 255
    2b16:	80 93 88 00 	sts	0x0088, r24
    2b1a:	90 93 8b 00 	sts	0x008B, r25
    2b1e:	80 93 8a 00 	sts	0x008A, r24
    2b22:	90 93 8d 00 	sts	0x008D, r25
    2b26:	80 93 8c 00 	sts	0x008C, r24
    2b2a:	90 93 87 00 	sts	0x0087, r25
    2b2e:	80 93 86 00 	sts	0x0086, r24
    2b32:	8b ea       	ldi	r24, 0xAB	; 171
    2b34:	80 93 80 00 	sts	0x0080, r24
    2b38:	10 92 82 00 	sts	0x0082, r1
    2b3c:	8c e0       	ldi	r24, 0x0C	; 12
    2b3e:	80 83       	st	Z, r24
    2b40:	08 95       	ret

00002b42 <_Z18init_devices_servov>:
    2b42:	f8 94       	cli
    2b44:	d8 df       	rcall	.-80     	; 0x2af6 <_Z15port_init_servov>
    2b46:	da df       	rcall	.-76     	; 0x2afc <_Z8pwm_initv>
    2b48:	78 94       	sei
    2b4a:	08 95       	ret

00002b4c <_Z12servo_1_freev>:
    2b4c:	83 e0       	ldi	r24, 0x03	; 3
    2b4e:	80 93 89 00 	sts	0x0089, r24
    2b52:	8f ef       	ldi	r24, 0xFF	; 255
    2b54:	80 93 88 00 	sts	0x0088, r24
    2b58:	08 95       	ret

00002b5a <_Z12servo_2_freev>:
    2b5a:	83 e0       	ldi	r24, 0x03	; 3
    2b5c:	80 93 8b 00 	sts	0x008B, r24
    2b60:	8f ef       	ldi	r24, 0xFF	; 255
    2b62:	80 93 8a 00 	sts	0x008A, r24
    2b66:	08 95       	ret

00002b68 <_Z6pickupv>:
    2b68:	10 92 89 00 	sts	0x0089, r1
    2b6c:	81 e8       	ldi	r24, 0x81	; 129
    2b6e:	80 93 88 00 	sts	0x0088, r24
    2b72:	10 92 8b 00 	sts	0x008B, r1
    2b76:	88 e5       	ldi	r24, 0x58	; 88
    2b78:	80 93 8a 00 	sts	0x008A, r24
    2b7c:	2f ef       	ldi	r18, 0xFF	; 255
    2b7e:	8f ef       	ldi	r24, 0xFF	; 255
    2b80:	9c e2       	ldi	r25, 0x2C	; 44
    2b82:	21 50       	subi	r18, 0x01	; 1
    2b84:	80 40       	sbci	r24, 0x00	; 0
    2b86:	90 40       	sbci	r25, 0x00	; 0
    2b88:	e1 f7       	brne	.-8      	; 0x2b82 <_Z6pickupv+0x1a>
    2b8a:	00 c0       	rjmp	.+0      	; 0x2b8c <_Z6pickupv+0x24>
    2b8c:	00 00       	nop
    2b8e:	10 92 89 00 	sts	0x0089, r1
    2b92:	88 e5       	ldi	r24, 0x58	; 88
    2b94:	80 93 88 00 	sts	0x0088, r24
    2b98:	2f ef       	ldi	r18, 0xFF	; 255
    2b9a:	8f ef       	ldi	r24, 0xFF	; 255
    2b9c:	9c e2       	ldi	r25, 0x2C	; 44
    2b9e:	21 50       	subi	r18, 0x01	; 1
    2ba0:	80 40       	sbci	r24, 0x00	; 0
    2ba2:	90 40       	sbci	r25, 0x00	; 0
    2ba4:	e1 f7       	brne	.-8      	; 0x2b9e <_Z6pickupv+0x36>
    2ba6:	00 c0       	rjmp	.+0      	; 0x2ba8 <_Z6pickupv+0x40>
    2ba8:	00 00       	nop
    2baa:	10 92 8b 00 	sts	0x008B, r1
    2bae:	8b e7       	ldi	r24, 0x7B	; 123
    2bb0:	80 93 8a 00 	sts	0x008A, r24
    2bb4:	2f ef       	ldi	r18, 0xFF	; 255
    2bb6:	8f ef       	ldi	r24, 0xFF	; 255
    2bb8:	9c e2       	ldi	r25, 0x2C	; 44
    2bba:	21 50       	subi	r18, 0x01	; 1
    2bbc:	80 40       	sbci	r24, 0x00	; 0
    2bbe:	90 40       	sbci	r25, 0x00	; 0
    2bc0:	e1 f7       	brne	.-8      	; 0x2bba <_Z6pickupv+0x52>
    2bc2:	00 c0       	rjmp	.+0      	; 0x2bc4 <_Z6pickupv+0x5c>
    2bc4:	00 00       	nop
    2bc6:	10 92 89 00 	sts	0x0089, r1
    2bca:	81 e8       	ldi	r24, 0x81	; 129
    2bcc:	80 93 88 00 	sts	0x0088, r24
    2bd0:	2f ef       	ldi	r18, 0xFF	; 255
    2bd2:	8f ef       	ldi	r24, 0xFF	; 255
    2bd4:	9c e2       	ldi	r25, 0x2C	; 44
    2bd6:	21 50       	subi	r18, 0x01	; 1
    2bd8:	80 40       	sbci	r24, 0x00	; 0
    2bda:	90 40       	sbci	r25, 0x00	; 0
    2bdc:	e1 f7       	brne	.-8      	; 0x2bd6 <_Z6pickupv+0x6e>
    2bde:	00 c0       	rjmp	.+0      	; 0x2be0 <_Z6pickupv+0x78>
    2be0:	00 00       	nop
    2be2:	b4 df       	rcall	.-152    	; 0x2b4c <_Z12servo_1_freev>
    2be4:	ba cf       	rjmp	.-140    	; 0x2b5a <_Z12servo_2_freev>
    2be6:	08 95       	ret

00002be8 <_Z17smallest_locationPi>:
    2be8:	fc 01       	movw	r30, r24
    2bea:	20 81       	ld	r18, Z
    2bec:	31 81       	ldd	r19, Z+1	; 0x01
    2bee:	21 15       	cp	r18, r1
    2bf0:	31 05       	cpc	r19, r1
    2bf2:	a9 f0       	breq	.+42     	; 0x2c1e <_Z17smallest_locationPi+0x36>
    2bf4:	32 96       	adiw	r30, 0x02	; 2
    2bf6:	40 e0       	ldi	r20, 0x00	; 0
    2bf8:	50 e0       	ldi	r21, 0x00	; 0
    2bfa:	80 e0       	ldi	r24, 0x00	; 0
    2bfc:	90 e0       	ldi	r25, 0x00	; 0
    2bfe:	67 ee       	ldi	r22, 0xE7	; 231
    2c00:	73 e0       	ldi	r23, 0x03	; 3
    2c02:	62 17       	cp	r22, r18
    2c04:	73 07       	cpc	r23, r19
    2c06:	1c f0       	brlt	.+6      	; 0x2c0e <_Z17smallest_locationPi+0x26>
    2c08:	84 2f       	mov	r24, r20
    2c0a:	95 2f       	mov	r25, r21
    2c0c:	b9 01       	movw	r22, r18
    2c0e:	4f 5f       	subi	r20, 0xFF	; 255
    2c10:	5f 4f       	sbci	r21, 0xFF	; 255
    2c12:	21 91       	ld	r18, Z+
    2c14:	31 91       	ld	r19, Z+
    2c16:	21 15       	cp	r18, r1
    2c18:	31 05       	cpc	r19, r1
    2c1a:	99 f7       	brne	.-26     	; 0x2c02 <_Z17smallest_locationPi+0x1a>
    2c1c:	08 95       	ret
    2c1e:	80 e0       	ldi	r24, 0x00	; 0
    2c20:	90 e0       	ldi	r25, 0x00	; 0
    2c22:	08 95       	ret

00002c24 <_Z11final_pointi>:
    2c24:	8a 30       	cpi	r24, 0x0A	; 10
    2c26:	91 05       	cpc	r25, r1
    2c28:	e8 f4       	brcc	.+58     	; 0x2c64 <_Z11final_pointi+0x40>
    2c2a:	fc 01       	movw	r30, r24
    2c2c:	ee 58       	subi	r30, 0x8E	; 142
    2c2e:	ff 4f       	sbci	r31, 0xFF	; 255
    2c30:	0c 94 bc 23 	jmp	0x4778	; 0x4778 <__tablejump2__>
    2c34:	26 ee       	ldi	r18, 0xE6	; 230
    2c36:	30 e1       	ldi	r19, 0x10	; 16
    2c38:	1b c0       	rjmp	.+54     	; 0x2c70 <_Z11final_pointi+0x4c>
    2c3a:	2e e8       	ldi	r18, 0x8E	; 142
    2c3c:	33 e1       	ldi	r19, 0x13	; 19
    2c3e:	18 c0       	rjmp	.+48     	; 0x2c70 <_Z11final_pointi+0x4c>
    2c40:	2a e8       	ldi	r18, 0x8A	; 138
    2c42:	36 e0       	ldi	r19, 0x06	; 6
    2c44:	15 c0       	rjmp	.+42     	; 0x2c70 <_Z11final_pointi+0x4c>
    2c46:	22 e3       	ldi	r18, 0x32	; 50
    2c48:	39 e0       	ldi	r19, 0x09	; 9
    2c4a:	12 c0       	rjmp	.+36     	; 0x2c70 <_Z11final_pointi+0x4c>
    2c4c:	2a e2       	ldi	r18, 0x2A	; 42
    2c4e:	31 e1       	ldi	r19, 0x11	; 17
    2c50:	0f c0       	rjmp	.+30     	; 0x2c70 <_Z11final_pointi+0x4c>
    2c52:	22 ed       	ldi	r18, 0xD2	; 210
    2c54:	33 e1       	ldi	r19, 0x13	; 19
    2c56:	0c c0       	rjmp	.+24     	; 0x2c70 <_Z11final_pointi+0x4c>
    2c58:	2b ef       	ldi	r18, 0xFB	; 251
    2c5a:	3c e0       	ldi	r19, 0x0C	; 12
    2c5c:	09 c0       	rjmp	.+18     	; 0x2c70 <_Z11final_pointi+0x4c>
    2c5e:	2d e1       	ldi	r18, 0x1D	; 29
    2c60:	3d e0       	ldi	r19, 0x0D	; 13
    2c62:	06 c0       	rjmp	.+12     	; 0x2c70 <_Z11final_pointi+0x4c>
    2c64:	08 95       	ret
    2c66:	26 e4       	ldi	r18, 0x46	; 70
    2c68:	36 e0       	ldi	r19, 0x06	; 6
    2c6a:	02 c0       	rjmp	.+4      	; 0x2c70 <_Z11final_pointi+0x4c>
    2c6c:	2e ee       	ldi	r18, 0xEE	; 238
    2c6e:	38 e0       	ldi	r19, 0x08	; 8
    2c70:	82 2f       	mov	r24, r18
    2c72:	93 2f       	mov	r25, r19
    2c74:	08 95       	ret

00002c76 <_Z13deposit_pointPi>:
    2c76:	2f 92       	push	r2
    2c78:	3f 92       	push	r3
    2c7a:	4f 92       	push	r4
    2c7c:	5f 92       	push	r5
    2c7e:	6f 92       	push	r6
    2c80:	7f 92       	push	r7
    2c82:	8f 92       	push	r8
    2c84:	9f 92       	push	r9
    2c86:	af 92       	push	r10
    2c88:	bf 92       	push	r11
    2c8a:	cf 92       	push	r12
    2c8c:	df 92       	push	r13
    2c8e:	ef 92       	push	r14
    2c90:	ff 92       	push	r15
    2c92:	0f 93       	push	r16
    2c94:	1f 93       	push	r17
    2c96:	cf 93       	push	r28
    2c98:	df 93       	push	r29
    2c9a:	cd b7       	in	r28, 0x3d	; 61
    2c9c:	de b7       	in	r29, 0x3e	; 62
    2c9e:	6c 97       	sbiw	r28, 0x1c	; 28
    2ca0:	0f b6       	in	r0, 0x3f	; 63
    2ca2:	f8 94       	cli
    2ca4:	de bf       	out	0x3e, r29	; 62
    2ca6:	0f be       	out	0x3f, r0	; 63
    2ca8:	cd bf       	out	0x3d, r28	; 61
    2caa:	fe 01       	movw	r30, r28
    2cac:	31 96       	adiw	r30, 0x01	; 1
    2cae:	26 e1       	ldi	r18, 0x16	; 22
    2cb0:	df 01       	movw	r26, r30
    2cb2:	1d 92       	st	X+, r1
    2cb4:	2a 95       	dec	r18
    2cb6:	e9 f7       	brne	.-6      	; 0x2cb2 <_Z13deposit_pointPi+0x3c>
    2cb8:	23 e6       	ldi	r18, 0x63	; 99
    2cba:	30 e0       	ldi	r19, 0x00	; 0
    2cbc:	3a 83       	std	Y+2, r19	; 0x02
    2cbe:	29 83       	std	Y+1, r18	; 0x01
    2cc0:	3c 83       	std	Y+4, r19	; 0x04
    2cc2:	2b 83       	std	Y+3, r18	; 0x03
    2cc4:	3e 83       	std	Y+6, r19	; 0x06
    2cc6:	2d 83       	std	Y+5, r18	; 0x05
    2cc8:	38 87       	std	Y+8, r19	; 0x08
    2cca:	2f 83       	std	Y+7, r18	; 0x07
    2ccc:	3a 87       	std	Y+10, r19	; 0x0a
    2cce:	29 87       	std	Y+9, r18	; 0x09
    2cd0:	3c 87       	std	Y+12, r19	; 0x0c
    2cd2:	2b 87       	std	Y+11, r18	; 0x0b
    2cd4:	3e 87       	std	Y+14, r19	; 0x0e
    2cd6:	2d 87       	std	Y+13, r18	; 0x0d
    2cd8:	38 8b       	std	Y+16, r19	; 0x10
    2cda:	2f 87       	std	Y+15, r18	; 0x0f
    2cdc:	3a 8b       	std	Y+18, r19	; 0x12
    2cde:	29 8b       	std	Y+17, r18	; 0x11
    2ce0:	3c 8b       	std	Y+20, r19	; 0x14
    2ce2:	2b 8b       	std	Y+19, r18	; 0x13
    2ce4:	80 90 67 03 	lds	r8, 0x0367
    2ce8:	90 90 68 03 	lds	r9, 0x0368
    2cec:	0f 2e       	mov	r0, r31
    2cee:	f3 e6       	ldi	r31, 0x63	; 99
    2cf0:	2f 2e       	mov	r2, r31
    2cf2:	31 2c       	mov	r3, r1
    2cf4:	f0 2d       	mov	r31, r0
    2cf6:	e3 e6       	ldi	r30, 0x63	; 99
    2cf8:	f0 e0       	ldi	r31, 0x00	; 0
    2cfa:	fc 8f       	std	Y+28, r31	; 0x1c
    2cfc:	eb 8f       	std	Y+27, r30	; 0x1b
    2cfe:	5c 01       	movw	r10, r24
    2d00:	00 e0       	ldi	r16, 0x00	; 0
    2d02:	10 e0       	ldi	r17, 0x00	; 0
    2d04:	d5 01       	movw	r26, r10
    2d06:	8d 91       	ld	r24, X+
    2d08:	9d 91       	ld	r25, X+
    2d0a:	5d 01       	movw	r10, r26
    2d0c:	83 30       	cpi	r24, 0x03	; 3
    2d0e:	91 05       	cpc	r25, r1
    2d10:	09 f4       	brne	.+2      	; 0x2d14 <_Z13deposit_pointPi+0x9e>
    2d12:	9d c0       	rjmp	.+314    	; 0x2e4e <_Z13deposit_pointPi+0x1d8>
    2d14:	3c f4       	brge	.+14     	; 0x2d24 <_Z13deposit_pointPi+0xae>
    2d16:	81 30       	cpi	r24, 0x01	; 1
    2d18:	91 05       	cpc	r25, r1
    2d1a:	61 f0       	breq	.+24     	; 0x2d34 <_Z13deposit_pointPi+0xbe>
    2d1c:	02 97       	sbiw	r24, 0x02	; 2
    2d1e:	09 f4       	brne	.+2      	; 0x2d22 <_Z13deposit_pointPi+0xac>
    2d20:	4f c0       	rjmp	.+158    	; 0x2dc0 <_Z13deposit_pointPi+0x14a>
    2d22:	6d c1       	rjmp	.+730    	; 0x2ffe <_Z13deposit_pointPi+0x388>
    2d24:	84 30       	cpi	r24, 0x04	; 4
    2d26:	91 05       	cpc	r25, r1
    2d28:	09 f4       	brne	.+2      	; 0x2d2c <_Z13deposit_pointPi+0xb6>
    2d2a:	d8 c0       	rjmp	.+432    	; 0x2edc <_Z13deposit_pointPi+0x266>
    2d2c:	05 97       	sbiw	r24, 0x05	; 5
    2d2e:	09 f4       	brne	.+2      	; 0x2d32 <_Z13deposit_pointPi+0xbc>
    2d30:	1c c1       	rjmp	.+568    	; 0x2f6a <_Z13deposit_pointPi+0x2f4>
    2d32:	65 c1       	rjmp	.+714    	; 0x2ffe <_Z13deposit_pointPi+0x388>
    2d34:	f4 01       	movw	r30, r8
    2d36:	05 80       	ldd	r0, Z+5	; 0x05
    2d38:	f6 81       	ldd	r31, Z+6	; 0x06
    2d3a:	e0 2d       	mov	r30, r0
    2d3c:	f8 8f       	std	Y+24, r31	; 0x18
    2d3e:	ef 8b       	std	Y+23, r30	; 0x17
    2d40:	d4 01       	movw	r26, r8
    2d42:	17 96       	adiw	r26, 0x07	; 7
    2d44:	6d 91       	ld	r22, X+
    2d46:	7c 91       	ld	r23, X
    2d48:	18 97       	sbiw	r26, 0x08	; 8
    2d4a:	62 50       	subi	r22, 0x02	; 2
    2d4c:	71 09       	sbc	r23, r1
    2d4e:	88 27       	eor	r24, r24
    2d50:	77 fd       	sbrc	r23, 7
    2d52:	80 95       	com	r24
    2d54:	98 2f       	mov	r25, r24
    2d56:	0e 94 30 23 	call	0x4660	; 0x4660 <__floatsisf>
    2d5a:	6b 01       	movw	r12, r22
    2d5c:	7c 01       	movw	r14, r24
    2d5e:	e8 94       	clt
    2d60:	f7 f8       	bld	r15, 7
    2d62:	6f 89       	ldd	r22, Y+23	; 0x17
    2d64:	78 8d       	ldd	r23, Y+24	; 0x18
    2d66:	62 50       	subi	r22, 0x02	; 2
    2d68:	71 09       	sbc	r23, r1
    2d6a:	88 27       	eor	r24, r24
    2d6c:	77 fd       	sbrc	r23, 7
    2d6e:	80 95       	com	r24
    2d70:	98 2f       	mov	r25, r24
    2d72:	0e 94 30 23 	call	0x4660	; 0x4660 <__floatsisf>
    2d76:	9f 77       	andi	r25, 0x7F	; 127
    2d78:	a7 01       	movw	r20, r14
    2d7a:	96 01       	movw	r18, r12
    2d7c:	0e 94 31 22 	call	0x4462	; 0x4462 <__addsf3>
    2d80:	0e 94 fd 22 	call	0x45fa	; 0x45fa <__fixsfsi>
    2d84:	2b 01       	movw	r4, r22
    2d86:	3c 01       	movw	r6, r24
    2d88:	7a 8f       	std	Y+26, r23	; 0x1a
    2d8a:	69 8f       	std	Y+25, r22	; 0x19
    2d8c:	6f 89       	ldd	r22, Y+23	; 0x17
    2d8e:	78 8d       	ldd	r23, Y+24	; 0x18
    2d90:	64 50       	subi	r22, 0x04	; 4
    2d92:	71 09       	sbc	r23, r1
    2d94:	88 27       	eor	r24, r24
    2d96:	77 fd       	sbrc	r23, 7
    2d98:	80 95       	com	r24
    2d9a:	98 2f       	mov	r25, r24
    2d9c:	0e 94 30 23 	call	0x4660	; 0x4660 <__floatsisf>
    2da0:	9b 01       	movw	r18, r22
    2da2:	ac 01       	movw	r20, r24
    2da4:	5f 77       	andi	r21, 0x7F	; 127
    2da6:	c7 01       	movw	r24, r14
    2da8:	b6 01       	movw	r22, r12
    2daa:	0e 94 31 22 	call	0x4462	; 0x4462 <__addsf3>
    2dae:	0e 94 fd 22 	call	0x45fa	; 0x45fa <__fixsfsi>
    2db2:	64 15       	cp	r22, r4
    2db4:	75 05       	cpc	r23, r5
    2db6:	0c f0       	brlt	.+2      	; 0x2dba <_Z13deposit_pointPi+0x144>
    2db8:	21 c1       	rjmp	.+578    	; 0x2ffc <_Z13deposit_pointPi+0x386>
    2dba:	7c 8f       	std	Y+28, r23	; 0x1c
    2dbc:	6b 8f       	std	Y+27, r22	; 0x1b
    2dbe:	1f c1       	rjmp	.+574    	; 0x2ffe <_Z13deposit_pointPi+0x388>
    2dc0:	d4 01       	movw	r26, r8
    2dc2:	15 96       	adiw	r26, 0x05	; 5
    2dc4:	0d 90       	ld	r0, X+
    2dc6:	bc 91       	ld	r27, X
    2dc8:	a0 2d       	mov	r26, r0
    2dca:	b8 8f       	std	Y+24, r27	; 0x18
    2dcc:	af 8b       	std	Y+23, r26	; 0x17
    2dce:	f4 01       	movw	r30, r8
    2dd0:	67 81       	ldd	r22, Z+7	; 0x07
    2dd2:	70 85       	ldd	r23, Z+8	; 0x08
    2dd4:	62 50       	subi	r22, 0x02	; 2
    2dd6:	71 09       	sbc	r23, r1
    2dd8:	88 27       	eor	r24, r24
    2dda:	77 fd       	sbrc	r23, 7
    2ddc:	80 95       	com	r24
    2dde:	98 2f       	mov	r25, r24
    2de0:	0e 94 30 23 	call	0x4660	; 0x4660 <__floatsisf>
    2de4:	6b 01       	movw	r12, r22
    2de6:	7c 01       	movw	r14, r24
    2de8:	e8 94       	clt
    2dea:	f7 f8       	bld	r15, 7
    2dec:	6f 89       	ldd	r22, Y+23	; 0x17
    2dee:	78 8d       	ldd	r23, Y+24	; 0x18
    2df0:	6a 50       	subi	r22, 0x0A	; 10
    2df2:	71 09       	sbc	r23, r1
    2df4:	88 27       	eor	r24, r24
    2df6:	77 fd       	sbrc	r23, 7
    2df8:	80 95       	com	r24
    2dfa:	98 2f       	mov	r25, r24
    2dfc:	0e 94 30 23 	call	0x4660	; 0x4660 <__floatsisf>
    2e00:	9f 77       	andi	r25, 0x7F	; 127
    2e02:	a7 01       	movw	r20, r14
    2e04:	96 01       	movw	r18, r12
    2e06:	0e 94 31 22 	call	0x4462	; 0x4462 <__addsf3>
    2e0a:	0e 94 fd 22 	call	0x45fa	; 0x45fa <__fixsfsi>
    2e0e:	2b 01       	movw	r4, r22
    2e10:	3c 01       	movw	r6, r24
    2e12:	7a 8f       	std	Y+26, r23	; 0x1a
    2e14:	69 8f       	std	Y+25, r22	; 0x19
    2e16:	6f 89       	ldd	r22, Y+23	; 0x17
    2e18:	78 8d       	ldd	r23, Y+24	; 0x18
    2e1a:	6c 50       	subi	r22, 0x0C	; 12
    2e1c:	71 09       	sbc	r23, r1
    2e1e:	88 27       	eor	r24, r24
    2e20:	77 fd       	sbrc	r23, 7
    2e22:	80 95       	com	r24
    2e24:	98 2f       	mov	r25, r24
    2e26:	0e 94 30 23 	call	0x4660	; 0x4660 <__floatsisf>
    2e2a:	9b 01       	movw	r18, r22
    2e2c:	ac 01       	movw	r20, r24
    2e2e:	5f 77       	andi	r21, 0x7F	; 127
    2e30:	c7 01       	movw	r24, r14
    2e32:	b6 01       	movw	r22, r12
    2e34:	0e 94 31 22 	call	0x4462	; 0x4462 <__addsf3>
    2e38:	0e 94 fd 22 	call	0x45fa	; 0x45fa <__fixsfsi>
    2e3c:	64 15       	cp	r22, r4
    2e3e:	75 05       	cpc	r23, r5
    2e40:	1c f0       	brlt	.+6      	; 0x2e48 <_Z13deposit_pointPi+0x1d2>
    2e42:	5e 82       	std	Y+6, r5	; 0x06
    2e44:	4d 82       	std	Y+5, r4	; 0x05
    2e46:	db c0       	rjmp	.+438    	; 0x2ffe <_Z13deposit_pointPi+0x388>
    2e48:	78 87       	std	Y+8, r23	; 0x08
    2e4a:	6f 83       	std	Y+7, r22	; 0x07
    2e4c:	d8 c0       	rjmp	.+432    	; 0x2ffe <_Z13deposit_pointPi+0x388>
    2e4e:	d4 01       	movw	r26, r8
    2e50:	15 96       	adiw	r26, 0x05	; 5
    2e52:	0d 90       	ld	r0, X+
    2e54:	bc 91       	ld	r27, X
    2e56:	a0 2d       	mov	r26, r0
    2e58:	b8 8f       	std	Y+24, r27	; 0x18
    2e5a:	af 8b       	std	Y+23, r26	; 0x17
    2e5c:	f4 01       	movw	r30, r8
    2e5e:	67 81       	ldd	r22, Z+7	; 0x07
    2e60:	70 85       	ldd	r23, Z+8	; 0x08
    2e62:	66 50       	subi	r22, 0x06	; 6
    2e64:	71 09       	sbc	r23, r1
    2e66:	88 27       	eor	r24, r24
    2e68:	77 fd       	sbrc	r23, 7
    2e6a:	80 95       	com	r24
    2e6c:	98 2f       	mov	r25, r24
    2e6e:	0e 94 30 23 	call	0x4660	; 0x4660 <__floatsisf>
    2e72:	6b 01       	movw	r12, r22
    2e74:	7c 01       	movw	r14, r24
    2e76:	e8 94       	clt
    2e78:	f7 f8       	bld	r15, 7
    2e7a:	6f 89       	ldd	r22, Y+23	; 0x17
    2e7c:	78 8d       	ldd	r23, Y+24	; 0x18
    2e7e:	62 50       	subi	r22, 0x02	; 2
    2e80:	71 09       	sbc	r23, r1
    2e82:	88 27       	eor	r24, r24
    2e84:	77 fd       	sbrc	r23, 7
    2e86:	80 95       	com	r24
    2e88:	98 2f       	mov	r25, r24
    2e8a:	0e 94 30 23 	call	0x4660	; 0x4660 <__floatsisf>
    2e8e:	9f 77       	andi	r25, 0x7F	; 127
    2e90:	a7 01       	movw	r20, r14
    2e92:	96 01       	movw	r18, r12
    2e94:	0e 94 31 22 	call	0x4462	; 0x4462 <__addsf3>
    2e98:	0e 94 fd 22 	call	0x45fa	; 0x45fa <__fixsfsi>
    2e9c:	2b 01       	movw	r4, r22
    2e9e:	3c 01       	movw	r6, r24
    2ea0:	7a 8f       	std	Y+26, r23	; 0x1a
    2ea2:	69 8f       	std	Y+25, r22	; 0x19
    2ea4:	6f 89       	ldd	r22, Y+23	; 0x17
    2ea6:	78 8d       	ldd	r23, Y+24	; 0x18
    2ea8:	64 50       	subi	r22, 0x04	; 4
    2eaa:	71 09       	sbc	r23, r1
    2eac:	88 27       	eor	r24, r24
    2eae:	77 fd       	sbrc	r23, 7
    2eb0:	80 95       	com	r24
    2eb2:	98 2f       	mov	r25, r24
    2eb4:	0e 94 30 23 	call	0x4660	; 0x4660 <__floatsisf>
    2eb8:	9b 01       	movw	r18, r22
    2eba:	ac 01       	movw	r20, r24
    2ebc:	5f 77       	andi	r21, 0x7F	; 127
    2ebe:	c7 01       	movw	r24, r14
    2ec0:	b6 01       	movw	r22, r12
    2ec2:	0e 94 31 22 	call	0x4462	; 0x4462 <__addsf3>
    2ec6:	0e 94 fd 22 	call	0x45fa	; 0x45fa <__fixsfsi>
    2eca:	64 15       	cp	r22, r4
    2ecc:	75 05       	cpc	r23, r5
    2ece:	1c f0       	brlt	.+6      	; 0x2ed6 <_Z13deposit_pointPi+0x260>
    2ed0:	5a 86       	std	Y+10, r5	; 0x0a
    2ed2:	49 86       	std	Y+9, r4	; 0x09
    2ed4:	94 c0       	rjmp	.+296    	; 0x2ffe <_Z13deposit_pointPi+0x388>
    2ed6:	7c 87       	std	Y+12, r23	; 0x0c
    2ed8:	6b 87       	std	Y+11, r22	; 0x0b
    2eda:	91 c0       	rjmp	.+290    	; 0x2ffe <_Z13deposit_pointPi+0x388>
    2edc:	d4 01       	movw	r26, r8
    2ede:	15 96       	adiw	r26, 0x05	; 5
    2ee0:	0d 90       	ld	r0, X+
    2ee2:	bc 91       	ld	r27, X
    2ee4:	a0 2d       	mov	r26, r0
    2ee6:	b8 8f       	std	Y+24, r27	; 0x18
    2ee8:	af 8b       	std	Y+23, r26	; 0x17
    2eea:	f4 01       	movw	r30, r8
    2eec:	67 81       	ldd	r22, Z+7	; 0x07
    2eee:	70 85       	ldd	r23, Z+8	; 0x08
    2ef0:	66 50       	subi	r22, 0x06	; 6
    2ef2:	71 09       	sbc	r23, r1
    2ef4:	88 27       	eor	r24, r24
    2ef6:	77 fd       	sbrc	r23, 7
    2ef8:	80 95       	com	r24
    2efa:	98 2f       	mov	r25, r24
    2efc:	0e 94 30 23 	call	0x4660	; 0x4660 <__floatsisf>
    2f00:	6b 01       	movw	r12, r22
    2f02:	7c 01       	movw	r14, r24
    2f04:	e8 94       	clt
    2f06:	f7 f8       	bld	r15, 7
    2f08:	6f 89       	ldd	r22, Y+23	; 0x17
    2f0a:	78 8d       	ldd	r23, Y+24	; 0x18
    2f0c:	6a 50       	subi	r22, 0x0A	; 10
    2f0e:	71 09       	sbc	r23, r1
    2f10:	88 27       	eor	r24, r24
    2f12:	77 fd       	sbrc	r23, 7
    2f14:	80 95       	com	r24
    2f16:	98 2f       	mov	r25, r24
    2f18:	0e 94 30 23 	call	0x4660	; 0x4660 <__floatsisf>
    2f1c:	9f 77       	andi	r25, 0x7F	; 127
    2f1e:	a7 01       	movw	r20, r14
    2f20:	96 01       	movw	r18, r12
    2f22:	0e 94 31 22 	call	0x4462	; 0x4462 <__addsf3>
    2f26:	0e 94 fd 22 	call	0x45fa	; 0x45fa <__fixsfsi>
    2f2a:	2b 01       	movw	r4, r22
    2f2c:	3c 01       	movw	r6, r24
    2f2e:	7a 8f       	std	Y+26, r23	; 0x1a
    2f30:	69 8f       	std	Y+25, r22	; 0x19
    2f32:	6f 89       	ldd	r22, Y+23	; 0x17
    2f34:	78 8d       	ldd	r23, Y+24	; 0x18
    2f36:	6c 50       	subi	r22, 0x0C	; 12
    2f38:	71 09       	sbc	r23, r1
    2f3a:	88 27       	eor	r24, r24
    2f3c:	77 fd       	sbrc	r23, 7
    2f3e:	80 95       	com	r24
    2f40:	98 2f       	mov	r25, r24
    2f42:	0e 94 30 23 	call	0x4660	; 0x4660 <__floatsisf>
    2f46:	9b 01       	movw	r18, r22
    2f48:	ac 01       	movw	r20, r24
    2f4a:	5f 77       	andi	r21, 0x7F	; 127
    2f4c:	c7 01       	movw	r24, r14
    2f4e:	b6 01       	movw	r22, r12
    2f50:	0e 94 31 22 	call	0x4462	; 0x4462 <__addsf3>
    2f54:	0e 94 fd 22 	call	0x45fa	; 0x45fa <__fixsfsi>
    2f58:	64 15       	cp	r22, r4
    2f5a:	75 05       	cpc	r23, r5
    2f5c:	1c f0       	brlt	.+6      	; 0x2f64 <_Z13deposit_pointPi+0x2ee>
    2f5e:	5e 86       	std	Y+14, r5	; 0x0e
    2f60:	4d 86       	std	Y+13, r4	; 0x0d
    2f62:	4d c0       	rjmp	.+154    	; 0x2ffe <_Z13deposit_pointPi+0x388>
    2f64:	78 8b       	std	Y+16, r23	; 0x10
    2f66:	6f 87       	std	Y+15, r22	; 0x0f
    2f68:	4a c0       	rjmp	.+148    	; 0x2ffe <_Z13deposit_pointPi+0x388>
    2f6a:	d4 01       	movw	r26, r8
    2f6c:	15 96       	adiw	r26, 0x05	; 5
    2f6e:	6d 91       	ld	r22, X+
    2f70:	7c 91       	ld	r23, X
    2f72:	16 97       	sbiw	r26, 0x06	; 6
    2f74:	67 50       	subi	r22, 0x07	; 7
    2f76:	71 09       	sbc	r23, r1
    2f78:	88 27       	eor	r24, r24
    2f7a:	77 fd       	sbrc	r23, 7
    2f7c:	80 95       	com	r24
    2f7e:	98 2f       	mov	r25, r24
    2f80:	0e 94 30 23 	call	0x4660	; 0x4660 <__floatsisf>
    2f84:	6b 01       	movw	r12, r22
    2f86:	7c 01       	movw	r14, r24
    2f88:	e8 94       	clt
    2f8a:	f7 f8       	bld	r15, 7
    2f8c:	f4 01       	movw	r30, r8
    2f8e:	07 80       	ldd	r0, Z+7	; 0x07
    2f90:	f0 85       	ldd	r31, Z+8	; 0x08
    2f92:	e0 2d       	mov	r30, r0
    2f94:	f8 8f       	std	Y+24, r31	; 0x18
    2f96:	ef 8b       	std	Y+23, r30	; 0x17
    2f98:	bf 01       	movw	r22, r30
    2f9a:	63 50       	subi	r22, 0x03	; 3
    2f9c:	71 09       	sbc	r23, r1
    2f9e:	88 27       	eor	r24, r24
    2fa0:	77 fd       	sbrc	r23, 7
    2fa2:	80 95       	com	r24
    2fa4:	98 2f       	mov	r25, r24
    2fa6:	0e 94 30 23 	call	0x4660	; 0x4660 <__floatsisf>
    2faa:	9b 01       	movw	r18, r22
    2fac:	ac 01       	movw	r20, r24
    2fae:	5f 77       	andi	r21, 0x7F	; 127
    2fb0:	c7 01       	movw	r24, r14
    2fb2:	b6 01       	movw	r22, r12
    2fb4:	0e 94 31 22 	call	0x4462	; 0x4462 <__addsf3>
    2fb8:	0e 94 fd 22 	call	0x45fa	; 0x45fa <__fixsfsi>
    2fbc:	2b 01       	movw	r4, r22
    2fbe:	3c 01       	movw	r6, r24
    2fc0:	7a 8f       	std	Y+26, r23	; 0x1a
    2fc2:	69 8f       	std	Y+25, r22	; 0x19
    2fc4:	6f 89       	ldd	r22, Y+23	; 0x17
    2fc6:	78 8d       	ldd	r23, Y+24	; 0x18
    2fc8:	65 50       	subi	r22, 0x05	; 5
    2fca:	71 09       	sbc	r23, r1
    2fcc:	88 27       	eor	r24, r24
    2fce:	77 fd       	sbrc	r23, 7
    2fd0:	80 95       	com	r24
    2fd2:	98 2f       	mov	r25, r24
    2fd4:	0e 94 30 23 	call	0x4660	; 0x4660 <__floatsisf>
    2fd8:	9b 01       	movw	r18, r22
    2fda:	ac 01       	movw	r20, r24
    2fdc:	5f 77       	andi	r21, 0x7F	; 127
    2fde:	c7 01       	movw	r24, r14
    2fe0:	b6 01       	movw	r22, r12
    2fe2:	0e 94 31 22 	call	0x4462	; 0x4462 <__addsf3>
    2fe6:	0e 94 fd 22 	call	0x45fa	; 0x45fa <__fixsfsi>
    2fea:	64 15       	cp	r22, r4
    2fec:	75 05       	cpc	r23, r5
    2fee:	1c f0       	brlt	.+6      	; 0x2ff6 <_Z13deposit_pointPi+0x380>
    2ff0:	5a 8a       	std	Y+18, r5	; 0x12
    2ff2:	49 8a       	std	Y+17, r4	; 0x11
    2ff4:	04 c0       	rjmp	.+8      	; 0x2ffe <_Z13deposit_pointPi+0x388>
    2ff6:	7c 8b       	std	Y+20, r23	; 0x14
    2ff8:	6b 8b       	std	Y+19, r22	; 0x13
    2ffa:	01 c0       	rjmp	.+2      	; 0x2ffe <_Z13deposit_pointPi+0x388>
    2ffc:	12 01       	movw	r2, r4
    2ffe:	0f 5f       	subi	r16, 0xFF	; 255
    3000:	1f 4f       	sbci	r17, 0xFF	; 255
    3002:	03 30       	cpi	r16, 0x03	; 3
    3004:	11 05       	cpc	r17, r1
    3006:	09 f0       	breq	.+2      	; 0x300a <_Z13deposit_pointPi+0x394>
    3008:	7d ce       	rjmp	.-774    	; 0x2d04 <_Z13deposit_pointPi+0x8e>
    300a:	3a 82       	std	Y+2, r3	; 0x02
    300c:	29 82       	std	Y+1, r2	; 0x01
    300e:	8b 8d       	ldd	r24, Y+27	; 0x1b
    3010:	9c 8d       	ldd	r25, Y+28	; 0x1c
    3012:	9c 83       	std	Y+4, r25	; 0x04
    3014:	8b 83       	std	Y+3, r24	; 0x03
    3016:	ce 01       	movw	r24, r28
    3018:	01 96       	adiw	r24, 0x01	; 1
    301a:	e6 dd       	rcall	.-1076   	; 0x2be8 <_Z17smallest_locationPi>
    301c:	03 de       	rcall	.-1018   	; 0x2c24 <_Z11final_pointi>
    301e:	90 93 64 03 	sts	0x0364, r25
    3022:	80 93 63 03 	sts	0x0363, r24
    3026:	6c 96       	adiw	r28, 0x1c	; 28
    3028:	0f b6       	in	r0, 0x3f	; 63
    302a:	f8 94       	cli
    302c:	de bf       	out	0x3e, r29	; 62
    302e:	0f be       	out	0x3f, r0	; 63
    3030:	cd bf       	out	0x3d, r28	; 61
    3032:	df 91       	pop	r29
    3034:	cf 91       	pop	r28
    3036:	1f 91       	pop	r17
    3038:	0f 91       	pop	r16
    303a:	ff 90       	pop	r15
    303c:	ef 90       	pop	r14
    303e:	df 90       	pop	r13
    3040:	cf 90       	pop	r12
    3042:	bf 90       	pop	r11
    3044:	af 90       	pop	r10
    3046:	9f 90       	pop	r9
    3048:	8f 90       	pop	r8
    304a:	7f 90       	pop	r7
    304c:	6f 90       	pop	r6
    304e:	5f 90       	pop	r5
    3050:	4f 90       	pop	r4
    3052:	3f 90       	pop	r3
    3054:	2f 90       	pop	r2
    3056:	08 95       	ret

00003058 <_Z18nearest_row_selectv>:
    3058:	e0 91 67 03 	lds	r30, 0x0367
    305c:	f0 91 68 03 	lds	r31, 0x0368
    3060:	27 81       	ldd	r18, Z+7	; 0x07
    3062:	30 85       	ldd	r19, Z+8	; 0x08
    3064:	88 e0       	ldi	r24, 0x08	; 8
    3066:	90 e0       	ldi	r25, 0x00	; 0
    3068:	82 1b       	sub	r24, r18
    306a:	93 0b       	sbc	r25, r19
    306c:	05 97       	sbiw	r24, 0x05	; 5
    306e:	5c f5       	brge	.+86     	; 0x30c6 <_Z18nearest_row_selectv+0x6e>
    3070:	80 91 5a 05 	lds	r24, 0x055A
    3074:	90 91 5b 05 	lds	r25, 0x055B
    3078:	89 2b       	or	r24, r25
    307a:	f1 f0       	breq	.+60     	; 0x30b8 <_Z18nearest_row_selectv+0x60>
    307c:	80 91 02 08 	lds	r24, 0x0802
    3080:	90 91 03 08 	lds	r25, 0x0803
    3084:	89 2b       	or	r24, r25
    3086:	c1 f0       	breq	.+48     	; 0x30b8 <_Z18nearest_row_selectv+0x60>
    3088:	80 91 aa 0a 	lds	r24, 0x0AAA
    308c:	90 91 ab 0a 	lds	r25, 0x0AAB
    3090:	89 2b       	or	r24, r25
    3092:	91 f0       	breq	.+36     	; 0x30b8 <_Z18nearest_row_selectv+0x60>
    3094:	80 91 fa 0f 	lds	r24, 0x0FFA
    3098:	90 91 fb 0f 	lds	r25, 0x0FFB
    309c:	89 2b       	or	r24, r25
    309e:	61 f0       	breq	.+24     	; 0x30b8 <_Z18nearest_row_selectv+0x60>
    30a0:	80 91 a2 12 	lds	r24, 0x12A2
    30a4:	90 91 a3 12 	lds	r25, 0x12A3
    30a8:	89 2b       	or	r24, r25
    30aa:	31 f0       	breq	.+12     	; 0x30b8 <_Z18nearest_row_selectv+0x60>
    30ac:	80 91 4a 15 	lds	r24, 0x154A
    30b0:	90 91 4b 15 	lds	r25, 0x154B
    30b4:	89 2b       	or	r24, r25
    30b6:	39 f4       	brne	.+14     	; 0x30c6 <_Z18nearest_row_selectv+0x6e>
    30b8:	80 e5       	ldi	r24, 0x50	; 80
    30ba:	9d e0       	ldi	r25, 0x0D	; 13
    30bc:	90 93 64 03 	sts	0x0364, r25
    30c0:	80 93 63 03 	sts	0x0363, r24
    30c4:	08 95       	ret
    30c6:	80 91 d2 04 	lds	r24, 0x04D2
    30ca:	90 91 d3 04 	lds	r25, 0x04D3
    30ce:	89 2b       	or	r24, r25
    30d0:	f1 f0       	breq	.+60     	; 0x310e <_Z18nearest_row_selectv+0xb6>
    30d2:	80 91 7a 07 	lds	r24, 0x077A
    30d6:	90 91 7b 07 	lds	r25, 0x077B
    30da:	89 2b       	or	r24, r25
    30dc:	c1 f0       	breq	.+48     	; 0x310e <_Z18nearest_row_selectv+0xb6>
    30de:	80 91 22 0a 	lds	r24, 0x0A22
    30e2:	90 91 23 0a 	lds	r25, 0x0A23
    30e6:	89 2b       	or	r24, r25
    30e8:	91 f0       	breq	.+36     	; 0x310e <_Z18nearest_row_selectv+0xb6>
    30ea:	80 91 72 0f 	lds	r24, 0x0F72
    30ee:	90 91 73 0f 	lds	r25, 0x0F73
    30f2:	89 2b       	or	r24, r25
    30f4:	61 f0       	breq	.+24     	; 0x310e <_Z18nearest_row_selectv+0xb6>
    30f6:	80 91 1a 12 	lds	r24, 0x121A
    30fa:	90 91 1b 12 	lds	r25, 0x121B
    30fe:	89 2b       	or	r24, r25
    3100:	31 f0       	breq	.+12     	; 0x310e <_Z18nearest_row_selectv+0xb6>
    3102:	80 91 c2 14 	lds	r24, 0x14C2
    3106:	90 91 c3 14 	lds	r25, 0x14C3
    310a:	89 2b       	or	r24, r25
    310c:	31 f4       	brne	.+12     	; 0x311a <_Z18nearest_row_selectv+0xc2>
    310e:	88 ec       	ldi	r24, 0xC8	; 200
    3110:	9c e0       	ldi	r25, 0x0C	; 12
    3112:	90 93 64 03 	sts	0x0364, r25
    3116:	80 93 63 03 	sts	0x0363, r24
    311a:	08 95       	ret

0000311c <_Z17buzzer_pin_configv>:
    311c:	3b 9a       	sbi	0x07, 3	; 7
    311e:	43 98       	cbi	0x08, 3	; 8
    3120:	08 95       	ret

00003122 <_Z11init_buzzerv>:
    3122:	f8 94       	cli
    3124:	fb df       	rcall	.-10     	; 0x311c <_Z17buzzer_pin_configv>
    3126:	78 94       	sei
    3128:	08 95       	ret

0000312a <_Z9buzzer_onv>:
    312a:	86 b1       	in	r24, 0x06	; 6
    312c:	88 60       	ori	r24, 0x08	; 8
    312e:	88 b9       	out	0x08, r24	; 8
    3130:	08 95       	ret

00003132 <_Z10buzzer_offv>:
    3132:	86 b1       	in	r24, 0x06	; 6
    3134:	87 7f       	andi	r24, 0xF7	; 247
    3136:	88 b9       	out	0x08, r24	; 8
    3138:	08 95       	ret

0000313a <_Z14adc_pin_configv>:
    313a:	10 ba       	out	0x10, r1	; 16
    313c:	11 ba       	out	0x11, r1	; 17
    313e:	10 92 07 01 	sts	0x0107, r1
    3142:	10 92 08 01 	sts	0x0108, r1
    3146:	08 95       	ret

00003148 <_Z9port_initv>:
    3148:	bf db       	rcall	.-2178   	; 0x28c8 <_Z15lcd_port_configv>
    314a:	f7 df       	rcall	.-18     	; 0x313a <_Z14adc_pin_configv>
    314c:	0c 94 ca 00 	jmp	0x194	; 0x194 <_Z17motion_pin_configv>
    3150:	08 95       	ret

00003152 <_Z8adc_initv>:
    3152:	ea e7       	ldi	r30, 0x7A	; 122
    3154:	f0 e0       	ldi	r31, 0x00	; 0
    3156:	10 82       	st	Z, r1
    3158:	10 92 7b 00 	sts	0x007B, r1
    315c:	80 e2       	ldi	r24, 0x20	; 32
    315e:	80 93 7c 00 	sts	0x007C, r24
    3162:	80 e8       	ldi	r24, 0x80	; 128
    3164:	80 bf       	out	0x30, r24	; 48
    3166:	86 e8       	ldi	r24, 0x86	; 134
    3168:	80 83       	st	Z, r24
    316a:	08 95       	ret

0000316c <_Z14ADC_Conversionh>:
    316c:	88 30       	cpi	r24, 0x08	; 8
    316e:	18 f0       	brcs	.+6      	; 0x3176 <_Z14ADC_Conversionh+0xa>
    3170:	98 e0       	ldi	r25, 0x08	; 8
    3172:	90 93 7b 00 	sts	0x007B, r25
    3176:	87 70       	andi	r24, 0x07	; 7
    3178:	80 62       	ori	r24, 0x20	; 32
    317a:	80 93 7c 00 	sts	0x007C, r24
    317e:	ea e7       	ldi	r30, 0x7A	; 122
    3180:	f0 e0       	ldi	r31, 0x00	; 0
    3182:	80 81       	ld	r24, Z
    3184:	80 64       	ori	r24, 0x40	; 64
    3186:	80 83       	st	Z, r24
    3188:	80 81       	ld	r24, Z
    318a:	84 ff       	sbrs	r24, 4
    318c:	fd cf       	rjmp	.-6      	; 0x3188 <_Z14ADC_Conversionh+0x1c>
    318e:	80 91 79 00 	lds	r24, 0x0079
    3192:	ea e7       	ldi	r30, 0x7A	; 122
    3194:	f0 e0       	ldi	r31, 0x00	; 0
    3196:	90 81       	ld	r25, Z
    3198:	90 61       	ori	r25, 0x10	; 16
    319a:	90 83       	st	Z, r25
    319c:	10 92 7b 00 	sts	0x007B, r1
    31a0:	08 95       	ret

000031a2 <_Z12angle_rotatej>:
    31a2:	cf 92       	push	r12
    31a4:	df 92       	push	r13
    31a6:	ef 92       	push	r14
    31a8:	ff 92       	push	r15
    31aa:	bc 01       	movw	r22, r24
    31ac:	80 e0       	ldi	r24, 0x00	; 0
    31ae:	90 e0       	ldi	r25, 0x00	; 0
    31b0:	0e 94 2e 23 	call	0x465c	; 0x465c <__floatunsisf>
    31b4:	28 e4       	ldi	r18, 0x48	; 72
    31b6:	31 ee       	ldi	r19, 0xE1	; 225
    31b8:	42 e8       	ldi	r20, 0x82	; 130
    31ba:	50 e4       	ldi	r21, 0x40	; 64
    31bc:	0e 94 95 22 	call	0x452a	; 0x452a <__divsf3>
    31c0:	0e 94 02 23 	call	0x4604	; 0x4604 <__fixunssfsi>
    31c4:	66 5f       	subi	r22, 0xF6	; 246
    31c6:	7f 4f       	sbci	r23, 0xFF	; 255
    31c8:	6b 01       	movw	r12, r22
    31ca:	e1 2c       	mov	r14, r1
    31cc:	f1 2c       	mov	r15, r1
    31ce:	10 92 0c 1e 	sts	0x1E0C, r1
    31d2:	10 92 0d 1e 	sts	0x1E0D, r1
    31d6:	10 92 0e 1e 	sts	0x1E0E, r1
    31da:	10 92 0f 1e 	sts	0x1E0F, r1
    31de:	10 92 10 1e 	sts	0x1E10, r1
    31e2:	10 92 11 1e 	sts	0x1E11, r1
    31e6:	10 92 12 1e 	sts	0x1E12, r1
    31ea:	10 92 13 1e 	sts	0x1E13, r1
    31ee:	82 e0       	ldi	r24, 0x02	; 2
    31f0:	bd df       	rcall	.-134    	; 0x316c <_Z14ADC_Conversionh>
    31f2:	80 93 15 1e 	sts	0x1E15, r24
    31f6:	81 e0       	ldi	r24, 0x01	; 1
    31f8:	b9 df       	rcall	.-142    	; 0x316c <_Z14ADC_Conversionh>
    31fa:	80 93 16 1e 	sts	0x1E16, r24
    31fe:	83 e0       	ldi	r24, 0x03	; 3
    3200:	b5 df       	rcall	.-150    	; 0x316c <_Z14ADC_Conversionh>
    3202:	80 93 14 1e 	sts	0x1E14, r24
    3206:	80 91 0c 1e 	lds	r24, 0x1E0C
    320a:	90 91 0d 1e 	lds	r25, 0x1E0D
    320e:	a0 91 0e 1e 	lds	r26, 0x1E0E
    3212:	b0 91 0f 1e 	lds	r27, 0x1E0F
    3216:	8c 15       	cp	r24, r12
    3218:	9d 05       	cpc	r25, r13
    321a:	ae 05       	cpc	r26, r14
    321c:	bf 05       	cpc	r27, r15
    321e:	58 f5       	brcc	.+86     	; 0x3276 <_Z12angle_rotatej+0xd4>
    3220:	80 91 10 1e 	lds	r24, 0x1E10
    3224:	90 91 11 1e 	lds	r25, 0x1E11
    3228:	a0 91 12 1e 	lds	r26, 0x1E12
    322c:	b0 91 13 1e 	lds	r27, 0x1E13
    3230:	8c 15       	cp	r24, r12
    3232:	9d 05       	cpc	r25, r13
    3234:	ae 05       	cpc	r26, r14
    3236:	bf 05       	cpc	r27, r15
    3238:	f0 f4       	brcc	.+60     	; 0x3276 <_Z12angle_rotatej+0xd4>
    323a:	80 91 10 1e 	lds	r24, 0x1E10
    323e:	90 91 11 1e 	lds	r25, 0x1E11
    3242:	a0 91 12 1e 	lds	r26, 0x1E12
    3246:	b0 91 13 1e 	lds	r27, 0x1E13
    324a:	06 97       	sbiw	r24, 0x06	; 6
    324c:	a1 05       	cpc	r26, r1
    324e:	b1 05       	cpc	r27, r1
    3250:	68 f4       	brcc	.+26     	; 0x326c <_Z12angle_rotatej+0xca>
    3252:	80 91 0c 1e 	lds	r24, 0x1E0C
    3256:	90 91 0d 1e 	lds	r25, 0x1E0D
    325a:	a0 91 0e 1e 	lds	r26, 0x1E0E
    325e:	b0 91 0f 1e 	lds	r27, 0x1E0F
    3262:	06 97       	sbiw	r24, 0x06	; 6
    3264:	a1 05       	cpc	r26, r1
    3266:	b1 05       	cpc	r27, r1
    3268:	08 f4       	brcc	.+2      	; 0x326c <_Z12angle_rotatej+0xca>
    326a:	c1 cf       	rjmp	.-126    	; 0x31ee <_Z12angle_rotatej+0x4c>
    326c:	80 91 15 1e 	lds	r24, 0x1E15
    3270:	87 34       	cpi	r24, 0x47	; 71
    3272:	08 f4       	brcc	.+2      	; 0x3276 <_Z12angle_rotatej+0xd4>
    3274:	bc cf       	rjmp	.-136    	; 0x31ee <_Z12angle_rotatej+0x4c>
    3276:	0e 94 59 01 	call	0x2b2	; 0x2b2 <_Z4stopv>
    327a:	ff 90       	pop	r15
    327c:	ef 90       	pop	r14
    327e:	df 90       	pop	r13
    3280:	cf 90       	pop	r12
    3282:	08 95       	ret

00003284 <_Z12left_degreesj>:
    3284:	cf 93       	push	r28
    3286:	df 93       	push	r29
    3288:	ec 01       	movw	r28, r24
    328a:	0e 94 53 01 	call	0x2a6	; 0x2a6 <_Z4leftv>
    328e:	84 eb       	ldi	r24, 0xB4	; 180
    3290:	80 93 28 01 	sts	0x0128, r24
    3294:	80 93 2a 01 	sts	0x012A, r24
    3298:	ce 01       	movw	r24, r28
    329a:	83 df       	rcall	.-250    	; 0x31a2 <_Z12angle_rotatej>
    329c:	df 91       	pop	r29
    329e:	cf 91       	pop	r28
    32a0:	08 95       	ret

000032a2 <_Z13right_degreesj>:
    32a2:	cf 93       	push	r28
    32a4:	df 93       	push	r29
    32a6:	ec 01       	movw	r28, r24
    32a8:	0e 94 56 01 	call	0x2ac	; 0x2ac <_Z5rightv>
    32ac:	84 eb       	ldi	r24, 0xB4	; 180
    32ae:	80 93 28 01 	sts	0x0128, r24
    32b2:	80 93 2a 01 	sts	0x012A, r24
    32b6:	ce 01       	movw	r24, r28
    32b8:	74 df       	rcall	.-280    	; 0x31a2 <_Z12angle_rotatej>
    32ba:	df 91       	pop	r29
    32bc:	cf 91       	pop	r28
    32be:	08 95       	ret

000032c0 <_Z16init_devices_adcv>:



void init_devices_adc (void)
{
 	cli(); //Clears the global interrupts
    32c0:	f8 94       	cli
	port_init();
    32c2:	42 df       	rcall	.-380    	; 0x3148 <_Z9port_initv>
	adc_init();
    32c4:	46 df       	rcall	.-372    	; 0x3152 <_Z8adc_initv>

	sei();   //Enables the global interrupts
    32c6:	78 94       	sei
    32c8:	08 95       	ret

000032ca <_Z4Leftv>:


void Left()
{
	//line_check();
	left_degrees(90);
    32ca:	8a e5       	ldi	r24, 0x5A	; 90
    32cc:	90 e0       	ldi	r25, 0x00	; 0
    32ce:	da df       	rcall	.-76     	; 0x3284 <_Z12left_degreesj>
	//line_check();
	if(dir==1)
    32d0:	80 91 72 02 	lds	r24, 0x0272
    32d4:	81 30       	cpi	r24, 0x01	; 1
    32d6:	21 f4       	brne	.+8      	; 0x32e0 <_Z4Leftv+0x16>
	{
		dir=4;
    32d8:	84 e0       	ldi	r24, 0x04	; 4
    32da:	80 93 72 02 	sts	0x0272, r24
    32de:	08 95       	ret
	}
	else
	{
		dir--;
    32e0:	81 50       	subi	r24, 0x01	; 1
    32e2:	80 93 72 02 	sts	0x0272, r24
    32e6:	08 95       	ret

000032e8 <_Z5Rightv>:
}

void Right()
{
//	line_check();
	right_degrees(90);
    32e8:	8a e5       	ldi	r24, 0x5A	; 90
    32ea:	90 e0       	ldi	r25, 0x00	; 0
    32ec:	da df       	rcall	.-76     	; 0x32a2 <_Z13right_degreesj>
	
	//line_check();
	if(dir==4)
    32ee:	80 91 72 02 	lds	r24, 0x0272
    32f2:	84 30       	cpi	r24, 0x04	; 4
    32f4:	21 f4       	brne	.+8      	; 0x32fe <_Z5Rightv+0x16>
	{
		dir=1;
    32f6:	81 e0       	ldi	r24, 0x01	; 1
    32f8:	80 93 72 02 	sts	0x0272, r24
    32fc:	08 95       	ret
	}
	else
	{
		dir++;
    32fe:	8f 5f       	subi	r24, 0xFF	; 255
    3300:	80 93 72 02 	sts	0x0272, r24
    3304:	08 95       	ret

00003306 <_Z13MakeDirectioni>:
		
	}
}

void MakeDirection(int d)
{
    3306:	cf 93       	push	r28
    3308:	df 93       	push	r29
    330a:	ec 01       	movw	r28, r24
	while (dir!=d)
    330c:	17 c0       	rjmp	.+46     	; 0x333c <_Z13MakeDirectioni+0x36>
	{
		
		if (dir==1 && d==4)
    330e:	81 30       	cpi	r24, 0x01	; 1
    3310:	29 f4       	brne	.+10     	; 0x331c <_Z13MakeDirectioni+0x16>
    3312:	c4 30       	cpi	r28, 0x04	; 4
    3314:	d1 05       	cpc	r29, r1
    3316:	49 f4       	brne	.+18     	; 0x332a <_Z13MakeDirectioni+0x24>
		{
			Left();
    3318:	d8 df       	rcall	.-80     	; 0x32ca <_Z4Leftv>
    331a:	10 c0       	rjmp	.+32     	; 0x333c <_Z13MakeDirectioni+0x36>
			
		} 
		else if(dir==4 && d==1)
    331c:	84 30       	cpi	r24, 0x04	; 4
    331e:	29 f4       	brne	.+10     	; 0x332a <_Z13MakeDirectioni+0x24>
    3320:	c1 30       	cpi	r28, 0x01	; 1
    3322:	d1 05       	cpc	r29, r1
    3324:	11 f4       	brne	.+4      	; 0x332a <_Z13MakeDirectioni+0x24>
		{
			Right();
    3326:	e0 df       	rcall	.-64     	; 0x32e8 <_Z5Rightv>
    3328:	09 c0       	rjmp	.+18     	; 0x333c <_Z13MakeDirectioni+0x36>
			
		}
		else if (d>dir)
    332a:	2c 17       	cp	r18, r28
    332c:	3d 07       	cpc	r19, r29
    332e:	14 f4       	brge	.+4      	; 0x3334 <_Z13MakeDirectioni+0x2e>
		{
			Right();
    3330:	db df       	rcall	.-74     	; 0x32e8 <_Z5Rightv>
    3332:	04 c0       	rjmp	.+8      	; 0x333c <_Z13MakeDirectioni+0x36>
			
		}
		else if (d<dir)
    3334:	c2 17       	cp	r28, r18
    3336:	d3 07       	cpc	r29, r19
    3338:	0c f4       	brge	.+2      	; 0x333c <_Z13MakeDirectioni+0x36>
		{
			Left();
    333a:	c7 df       	rcall	.-114    	; 0x32ca <_Z4Leftv>
	}
}

void MakeDirection(int d)
{
	while (dir!=d)
    333c:	80 91 72 02 	lds	r24, 0x0272
    3340:	28 2f       	mov	r18, r24
    3342:	30 e0       	ldi	r19, 0x00	; 0
    3344:	2c 17       	cp	r18, r28
    3346:	3d 07       	cpc	r19, r29
    3348:	11 f7       	brne	.-60     	; 0x330e <_Z13MakeDirectioni+0x8>
			
		}
		
		
	}
}
    334a:	df 91       	pop	r29
    334c:	cf 91       	pop	r28
    334e:	08 95       	ret

00003350 <_Z36MakeDirectionExclusivelyForDropPointi>:

void MakeDirectionExclusivelyForDropPoint(int d)
{
    3350:	cf 93       	push	r28
    3352:	df 93       	push	r29
    3354:	ec 01       	movw	r28, r24
	while (dir!=d)
    3356:	17 c0       	rjmp	.+46     	; 0x3386 <_Z36MakeDirectionExclusivelyForDropPointi+0x36>
	{
		
		if (dir==1 && d==4)
    3358:	81 30       	cpi	r24, 0x01	; 1
    335a:	29 f4       	brne	.+10     	; 0x3366 <_Z36MakeDirectionExclusivelyForDropPointi+0x16>
    335c:	c4 30       	cpi	r28, 0x04	; 4
    335e:	d1 05       	cpc	r29, r1
    3360:	49 f4       	brne	.+18     	; 0x3374 <_Z36MakeDirectionExclusivelyForDropPointi+0x24>
		{
			Left();
    3362:	b3 df       	rcall	.-154    	; 0x32ca <_Z4Leftv>
    3364:	10 c0       	rjmp	.+32     	; 0x3386 <_Z36MakeDirectionExclusivelyForDropPointi+0x36>
		}
		else if(dir==4 && d==1)
    3366:	84 30       	cpi	r24, 0x04	; 4
    3368:	29 f4       	brne	.+10     	; 0x3374 <_Z36MakeDirectionExclusivelyForDropPointi+0x24>
    336a:	c1 30       	cpi	r28, 0x01	; 1
    336c:	d1 05       	cpc	r29, r1
    336e:	11 f4       	brne	.+4      	; 0x3374 <_Z36MakeDirectionExclusivelyForDropPointi+0x24>
		{
			Right();
    3370:	bb df       	rcall	.-138    	; 0x32e8 <_Z5Rightv>
    3372:	09 c0       	rjmp	.+18     	; 0x3386 <_Z36MakeDirectionExclusivelyForDropPointi+0x36>
		}
		else if (d>dir)
    3374:	2c 17       	cp	r18, r28
    3376:	3d 07       	cpc	r19, r29
    3378:	14 f4       	brge	.+4      	; 0x337e <_Z36MakeDirectionExclusivelyForDropPointi+0x2e>
		{
			Right();
    337a:	b6 df       	rcall	.-148    	; 0x32e8 <_Z5Rightv>
    337c:	04 c0       	rjmp	.+8      	; 0x3386 <_Z36MakeDirectionExclusivelyForDropPointi+0x36>
		}
		else if (d<dir)
    337e:	c2 17       	cp	r28, r18
    3380:	d3 07       	cpc	r29, r19
    3382:	0c f4       	brge	.+2      	; 0x3386 <_Z36MakeDirectionExclusivelyForDropPointi+0x36>
		{
			Left();
    3384:	a2 df       	rcall	.-188    	; 0x32ca <_Z4Leftv>
	}
}

void MakeDirectionExclusivelyForDropPoint(int d)
{
	while (dir!=d)
    3386:	80 91 72 02 	lds	r24, 0x0272
    338a:	28 2f       	mov	r18, r24
    338c:	30 e0       	ldi	r19, 0x00	; 0
    338e:	2c 17       	cp	r18, r28
    3390:	3d 07       	cpc	r19, r29
    3392:	11 f7       	brne	.-60     	; 0x3358 <_Z36MakeDirectionExclusivelyForDropPointi+0x8>
			Left();
		}
		
		//Left();
	}
}
    3394:	df 91       	pop	r29
    3396:	cf 91       	pop	r28
    3398:	08 95       	ret

0000339a <_Z10line_checkv>:
void line_check()
{
	
	while(1)
	{
		Left_white_line = ADC_Conversion(3);	//Getting data of Left WL Sensor
    339a:	83 e0       	ldi	r24, 0x03	; 3
    339c:	e7 de       	rcall	.-562    	; 0x316c <_Z14ADC_Conversionh>
    339e:	80 93 16 1e 	sts	0x1E16, r24
		Center_white_line = ADC_Conversion(2);	//Getting data of Center WL Sensor
    33a2:	82 e0       	ldi	r24, 0x02	; 2
    33a4:	e3 de       	rcall	.-570    	; 0x316c <_Z14ADC_Conversionh>
    33a6:	80 93 15 1e 	sts	0x1E15, r24
		Right_white_line = ADC_Conversion(1);	//Getting data of Right WL Sensor
    33aa:	81 e0       	ldi	r24, 0x01	; 1
    33ac:	df de       	rcall	.-578    	; 0x316c <_Z14ADC_Conversionh>
    33ae:	80 93 14 1e 	sts	0x1E14, r24
		if((Left_white_line<15 && Center_white_line<15))// && (flag==0))
    33b2:	90 91 16 1e 	lds	r25, 0x1E16
    33b6:	9f 30       	cpi	r25, 0x0F	; 15
    33b8:	d0 f4       	brcc	.+52     	; 0x33ee <_Z10line_checkv+0x54>
    33ba:	20 91 15 1e 	lds	r18, 0x1E15
    33be:	2f 30       	cpi	r18, 0x0F	; 15
    33c0:	b0 f4       	brcc	.+44     	; 0x33ee <_Z10line_checkv+0x54>
		{
			
			flag=1;
    33c2:	81 e0       	ldi	r24, 0x01	; 1
    33c4:	80 93 71 02 	sts	0x0271, r24
			right();
    33c8:	0e 94 56 01 	call	0x2ac	; 0x2ac <_Z5rightv>
	sei();   // Enables the global interrupt
}

void velocity (unsigned char left_motor, unsigned char right_motor)
{
	OCR5AL = (unsigned char)left_motor;
    33cc:	86 e9       	ldi	r24, 0x96	; 150
    33ce:	80 93 28 01 	sts	0x0128, r24
	OCR5BL = (unsigned char)right_motor;
    33d2:	80 93 2a 01 	sts	0x012A, r24
			velocity(150,150);
			while(Center_white_line<70)
    33d6:	80 91 15 1e 	lds	r24, 0x1E15
    33da:	86 34       	cpi	r24, 0x46	; 70
    33dc:	08 f0       	brcs	.+2      	; 0x33e0 <_Z10line_checkv+0x46>
    33de:	7f c0       	rjmp	.+254    	; 0x34de <_Z10line_checkv+0x144>
			{
				Center_white_line = ADC_Conversion(2);
    33e0:	82 e0       	ldi	r24, 0x02	; 2
    33e2:	c4 de       	rcall	.-632    	; 0x316c <_Z14ADC_Conversionh>
    33e4:	80 93 15 1e 	sts	0x1E15, r24
		{
			
			flag=1;
			right();
			velocity(150,150);
			while(Center_white_line<70)
    33e8:	86 34       	cpi	r24, 0x46	; 70
    33ea:	d0 f3       	brcs	.-12     	; 0x33e0 <_Z10line_checkv+0x46>
    33ec:	78 c0       	rjmp	.+240    	; 0x34de <_Z10line_checkv+0x144>
			break;
			//forward();
			//velocity(200,50);
		}

		 else if((Right_white_line<15 && Center_white_line<15))// && (flag==1))
    33ee:	8f 30       	cpi	r24, 0x0F	; 15
    33f0:	c8 f4       	brcc	.+50     	; 0x3424 <_Z10line_checkv+0x8a>
    33f2:	20 91 15 1e 	lds	r18, 0x1E15
    33f6:	2f 30       	cpi	r18, 0x0F	; 15
    33f8:	a8 f4       	brcc	.+42     	; 0x3424 <_Z10line_checkv+0x8a>
		{
			flag=0;
    33fa:	10 92 71 02 	sts	0x0271, r1
			left();
    33fe:	0e 94 53 01 	call	0x2a6	; 0x2a6 <_Z4leftv>
	sei();   // Enables the global interrupt
}

void velocity (unsigned char left_motor, unsigned char right_motor)
{
	OCR5AL = (unsigned char)left_motor;
    3402:	86 e9       	ldi	r24, 0x96	; 150
    3404:	80 93 28 01 	sts	0x0128, r24
	OCR5BL = (unsigned char)right_motor;
    3408:	80 93 2a 01 	sts	0x012A, r24
			velocity(150,150);
			while(Center_white_line<70)
    340c:	80 91 15 1e 	lds	r24, 0x1E15
    3410:	86 34       	cpi	r24, 0x46	; 70
    3412:	08 f0       	brcs	.+2      	; 0x3416 <_Z10line_checkv+0x7c>
    3414:	64 c0       	rjmp	.+200    	; 0x34de <_Z10line_checkv+0x144>
			{
				Center_white_line = ADC_Conversion(2);
    3416:	82 e0       	ldi	r24, 0x02	; 2
    3418:	a9 de       	rcall	.-686    	; 0x316c <_Z14ADC_Conversionh>
    341a:	80 93 15 1e 	sts	0x1E15, r24
		 else if((Right_white_line<15 && Center_white_line<15))// && (flag==1))
		{
			flag=0;
			left();
			velocity(150,150);
			while(Center_white_line<70)
    341e:	86 34       	cpi	r24, 0x46	; 70
    3420:	d0 f3       	brcs	.-12     	; 0x3416 <_Z10line_checkv+0x7c>
    3422:	5d c0       	rjmp	.+186    	; 0x34de <_Z10line_checkv+0x144>
			{
				Center_white_line = ADC_Conversion(2);
			}
			break;
		}
		 else if (Left_white_line>20)// && flag==1)
    3424:	95 31       	cpi	r25, 0x15	; 21
    3426:	a8 f0       	brcs	.+42     	; 0x3452 <_Z10line_checkv+0xb8>
		{
			flag=0;
    3428:	10 92 71 02 	sts	0x0271, r1
			left();
    342c:	0e 94 53 01 	call	0x2a6	; 0x2a6 <_Z4leftv>
	sei();   // Enables the global interrupt
}

void velocity (unsigned char left_motor, unsigned char right_motor)
{
	OCR5AL = (unsigned char)left_motor;
    3430:	86 e9       	ldi	r24, 0x96	; 150
    3432:	80 93 28 01 	sts	0x0128, r24
	OCR5BL = (unsigned char)right_motor;
    3436:	80 93 2a 01 	sts	0x012A, r24
			velocity(150,150);
			while(Center_white_line<70)
    343a:	80 91 15 1e 	lds	r24, 0x1E15
    343e:	86 34       	cpi	r24, 0x46	; 70
    3440:	08 f0       	brcs	.+2      	; 0x3444 <_Z10line_checkv+0xaa>
    3442:	4d c0       	rjmp	.+154    	; 0x34de <_Z10line_checkv+0x144>
			{
				Center_white_line = ADC_Conversion(2);
    3444:	82 e0       	ldi	r24, 0x02	; 2
    3446:	92 de       	rcall	.-732    	; 0x316c <_Z14ADC_Conversionh>
    3448:	80 93 15 1e 	sts	0x1E15, r24
		 else if (Left_white_line>20)// && flag==1)
		{
			flag=0;
			left();
			velocity(150,150);
			while(Center_white_line<70)
    344c:	86 34       	cpi	r24, 0x46	; 70
    344e:	d0 f3       	brcs	.-12     	; 0x3444 <_Z10line_checkv+0xaa>
    3450:	46 c0       	rjmp	.+140    	; 0x34de <_Z10line_checkv+0x144>
			{
				Center_white_line = ADC_Conversion(2);
			}
			break;
		}
		 else if (Right_white_line>20)// && flag==0)
    3452:	85 31       	cpi	r24, 0x15	; 21
    3454:	a8 f0       	brcs	.+42     	; 0x3480 <_Z10line_checkv+0xe6>
		{
			flag=1;
    3456:	81 e0       	ldi	r24, 0x01	; 1
    3458:	80 93 71 02 	sts	0x0271, r24
			right();
    345c:	0e 94 56 01 	call	0x2ac	; 0x2ac <_Z5rightv>
	sei();   // Enables the global interrupt
}

void velocity (unsigned char left_motor, unsigned char right_motor)
{
	OCR5AL = (unsigned char)left_motor;
    3460:	86 e9       	ldi	r24, 0x96	; 150
    3462:	80 93 28 01 	sts	0x0128, r24
	OCR5BL = (unsigned char)right_motor;
    3466:	80 93 2a 01 	sts	0x012A, r24
			velocity(150,150);
			while(Center_white_line<70)
    346a:	80 91 15 1e 	lds	r24, 0x1E15
    346e:	86 34       	cpi	r24, 0x46	; 70
    3470:	b0 f5       	brcc	.+108    	; 0x34de <_Z10line_checkv+0x144>
			{
				Center_white_line = ADC_Conversion(2);
    3472:	82 e0       	ldi	r24, 0x02	; 2
    3474:	7b de       	rcall	.-778    	; 0x316c <_Z14ADC_Conversionh>
    3476:	80 93 15 1e 	sts	0x1E15, r24
		 else if (Right_white_line>20)// && flag==0)
		{
			flag=1;
			right();
			velocity(150,150);
			while(Center_white_line<70)
    347a:	86 34       	cpi	r24, 0x46	; 70
    347c:	d0 f3       	brcs	.-12     	; 0x3472 <_Z10line_checkv+0xd8>
    347e:	2f c0       	rjmp	.+94     	; 0x34de <_Z10line_checkv+0x144>
			{
				Center_white_line = ADC_Conversion(2);
			}
			break;
		}
		else if(Left_white_line<15 && Right_white_line<15 && Center_white_line <15 && flag==1)
    3480:	9f 30       	cpi	r25, 0x0F	; 15
    3482:	68 f5       	brcc	.+90     	; 0x34de <_Z10line_checkv+0x144>
    3484:	8f 30       	cpi	r24, 0x0F	; 15
    3486:	58 f5       	brcc	.+86     	; 0x34de <_Z10line_checkv+0x144>
    3488:	80 91 15 1e 	lds	r24, 0x1E15
    348c:	8f 30       	cpi	r24, 0x0F	; 15
    348e:	38 f5       	brcc	.+78     	; 0x34de <_Z10line_checkv+0x144>
    3490:	80 91 71 02 	lds	r24, 0x0271
    3494:	81 30       	cpi	r24, 0x01	; 1
    3496:	59 f5       	brne	.+86     	; 0x34ee <_Z10line_checkv+0x154>
		{
			left();	
    3498:	0e 94 53 01 	call	0x2a6	; 0x2a6 <_Z4leftv>
	sei();   // Enables the global interrupt
}

void velocity (unsigned char left_motor, unsigned char right_motor)
{
	OCR5AL = (unsigned char)left_motor;
    349c:	86 e9       	ldi	r24, 0x96	; 150
    349e:	80 93 28 01 	sts	0x0128, r24
	OCR5BL = (unsigned char)right_motor;
    34a2:	80 93 2a 01 	sts	0x012A, r24
			velocity(150,150);
			while(Center_white_line<70)
    34a6:	80 91 15 1e 	lds	r24, 0x1E15
    34aa:	86 34       	cpi	r24, 0x46	; 70
    34ac:	c0 f4       	brcc	.+48     	; 0x34de <_Z10line_checkv+0x144>
			{
				Center_white_line = ADC_Conversion(2);
    34ae:	82 e0       	ldi	r24, 0x02	; 2
    34b0:	5d de       	rcall	.-838    	; 0x316c <_Z14ADC_Conversionh>
    34b2:	80 93 15 1e 	sts	0x1E15, r24
		}
		else if(Left_white_line<15 && Right_white_line<15 && Center_white_line <15 && flag==1)
		{
			left();	
			velocity(150,150);
			while(Center_white_line<70)
    34b6:	86 34       	cpi	r24, 0x46	; 70
    34b8:	d0 f3       	brcs	.-12     	; 0x34ae <_Z10line_checkv+0x114>
    34ba:	11 c0       	rjmp	.+34     	; 0x34de <_Z10line_checkv+0x144>
			}
			break;
		}
		else if(Left_white_line<15 && Right_white_line<15 && Center_white_line <15 && flag==0)
		{
			right();
    34bc:	0e 94 56 01 	call	0x2ac	; 0x2ac <_Z5rightv>
	sei();   // Enables the global interrupt
}

void velocity (unsigned char left_motor, unsigned char right_motor)
{
	OCR5AL = (unsigned char)left_motor;
    34c0:	86 e9       	ldi	r24, 0x96	; 150
    34c2:	80 93 28 01 	sts	0x0128, r24
	OCR5BL = (unsigned char)right_motor;
    34c6:	80 93 2a 01 	sts	0x012A, r24
			velocity(150,150);
			while(Center_white_line<70)
    34ca:	80 91 15 1e 	lds	r24, 0x1E15
    34ce:	86 34       	cpi	r24, 0x46	; 70
    34d0:	30 f4       	brcc	.+12     	; 0x34de <_Z10line_checkv+0x144>
			{
				Center_white_line = ADC_Conversion(2);
    34d2:	82 e0       	ldi	r24, 0x02	; 2
    34d4:	4b de       	rcall	.-874    	; 0x316c <_Z14ADC_Conversionh>
    34d6:	80 93 15 1e 	sts	0x1E15, r24
		}
		else if(Left_white_line<15 && Right_white_line<15 && Center_white_line <15 && flag==0)
		{
			right();
			velocity(150,150);
			while(Center_white_line<70)
    34da:	86 34       	cpi	r24, 0x46	; 70
    34dc:	d0 f3       	brcs	.-12     	; 0x34d2 <_Z10line_checkv+0x138>
		}
		else break;
				
		
	}
	flag=0;
    34de:	10 92 71 02 	sts	0x0271, r1
	sei();   // Enables the global interrupt
}

void velocity (unsigned char left_motor, unsigned char right_motor)
{
	OCR5AL = (unsigned char)left_motor;
    34e2:	88 ec       	ldi	r24, 0xC8	; 200
    34e4:	80 93 28 01 	sts	0x0128, r24
	OCR5BL = (unsigned char)right_motor;
    34e8:	80 93 2a 01 	sts	0x012A, r24
    34ec:	08 95       	ret
			{
				Center_white_line = ADC_Conversion(2);
			}
			break;
		}
		else if(Left_white_line<15 && Right_white_line<15 && Center_white_line <15 && flag==0)
    34ee:	80 91 71 02 	lds	r24, 0x0271
    34f2:	81 11       	cpse	r24, r1
    34f4:	f4 cf       	rjmp	.-24     	; 0x34de <_Z10line_checkv+0x144>
    34f6:	e2 cf       	rjmp	.-60     	; 0x34bc <_Z10line_checkv+0x122>

000034f8 <_Z13check_for_boxv>:
	
	
}
int check_for_box()
{
	Front_Sharp_Sensor = ADC_Conversion(11);//Getting data of front sharp ir Sensor
    34f8:	8b e0       	ldi	r24, 0x0B	; 11
    34fa:	38 de       	rcall	.-912    	; 0x316c <_Z14ADC_Conversionh>
    34fc:	80 93 70 02 	sts	0x0270, r24
	
	if(Front_Sharp_Sensor>SHARP_THRESHOLD)
    3500:	87 34       	cpi	r24, 0x47	; 71
    3502:	08 f4       	brcc	.+2      	; 0x3506 <_Z13check_for_boxv+0xe>
    3504:	eb c0       	rjmp	.+470    	; 0x36dc <_Z13check_for_boxv+0x1e4>
	{
		PickupPointXpos = Current->XPOS;
    3506:	e0 91 67 03 	lds	r30, 0x0367
    350a:	f0 91 68 03 	lds	r31, 0x0368
    350e:	85 81       	ldd	r24, Z+5	; 0x05
    3510:	96 81       	ldd	r25, Z+6	; 0x06
    3512:	90 93 78 02 	sts	0x0278, r25
    3516:	80 93 77 02 	sts	0x0277, r24
		PickupPointYpos = Current->YPOS;
    351a:	87 81       	ldd	r24, Z+7	; 0x07
    351c:	90 85       	ldd	r25, Z+8	; 0x08
    351e:	90 93 76 02 	sts	0x0276, r25
    3522:	80 93 75 02 	sts	0x0275, r24
		
		red_read(); //display the pulse count when red filter is selected
    3526:	1e da       	rcall	.-3012   	; 0x2964 <_Z8red_readv>
	#else
		//round up by default
		__ticks_dc = (uint32_t)(ceil(fabs(__tmp)));
	#endif

	__builtin_avr_delay_cycles(__ticks_dc);
    3528:	2f ef       	ldi	r18, 0xFF	; 255
    352a:	8f e7       	ldi	r24, 0x7F	; 127
    352c:	96 e1       	ldi	r25, 0x16	; 22
    352e:	21 50       	subi	r18, 0x01	; 1
    3530:	80 40       	sbci	r24, 0x00	; 0
    3532:	90 40       	sbci	r25, 0x00	; 0
    3534:	e1 f7       	brne	.-8      	; 0x352e <_Z13check_for_boxv+0x36>
    3536:	00 c0       	rjmp	.+0      	; 0x3538 <_Z13check_for_boxv+0x40>
    3538:	00 00       	nop
		_delay_ms(500);
		green_read(); //display the pulse count when green filter is selected
    353a:	55 da       	rcall	.-2902   	; 0x29e6 <_Z10green_readv>
    353c:	2f ef       	ldi	r18, 0xFF	; 255
    353e:	8f e7       	ldi	r24, 0x7F	; 127
    3540:	96 e1       	ldi	r25, 0x16	; 22
    3542:	21 50       	subi	r18, 0x01	; 1
    3544:	80 40       	sbci	r24, 0x00	; 0
    3546:	90 40       	sbci	r25, 0x00	; 0
    3548:	e1 f7       	brne	.-8      	; 0x3542 <_Z13check_for_boxv+0x4a>
    354a:	00 c0       	rjmp	.+0      	; 0x354c <_Z13check_for_boxv+0x54>
    354c:	00 00       	nop
		_delay_ms(500);
		blue_read(); //display the pulse count when blue filter is selected
    354e:	8c da       	rcall	.-2792   	; 0x2a68 <_Z9blue_readv>
    3550:	2f ef       	ldi	r18, 0xFF	; 255
    3552:	8f e7       	ldi	r24, 0x7F	; 127
    3554:	96 e1       	ldi	r25, 0x16	; 22
    3556:	21 50       	subi	r18, 0x01	; 1
    3558:	80 40       	sbci	r24, 0x00	; 0
    355a:	90 40       	sbci	r25, 0x00	; 0
    355c:	e1 f7       	brne	.-8      	; 0x3556 <_Z13check_for_boxv+0x5e>
    355e:	00 c0       	rjmp	.+0      	; 0x3560 <_Z13check_for_boxv+0x68>
    3560:	00 00       	nop
		_delay_ms(500);
		if ((Red>Blue)&&(Red>Green)&&(Red>THRESHOLD))
    3562:	40 91 87 02 	lds	r20, 0x0287
    3566:	50 91 88 02 	lds	r21, 0x0288
    356a:	60 91 89 02 	lds	r22, 0x0289
    356e:	70 91 8a 02 	lds	r23, 0x028A
    3572:	80 91 83 02 	lds	r24, 0x0283
    3576:	90 91 84 02 	lds	r25, 0x0284
    357a:	a0 91 85 02 	lds	r26, 0x0285
    357e:	b0 91 86 02 	lds	r27, 0x0286
    3582:	84 17       	cp	r24, r20
    3584:	95 07       	cpc	r25, r21
    3586:	a6 07       	cpc	r26, r22
    3588:	b7 07       	cpc	r27, r23
    358a:	08 f0       	brcs	.+2      	; 0x358e <_Z13check_for_boxv+0x96>
    358c:	c1 c0       	rjmp	.+386    	; 0x3710 <_Z13check_for_boxv+0x218>
    358e:	40 91 87 02 	lds	r20, 0x0287
    3592:	50 91 88 02 	lds	r21, 0x0288
    3596:	60 91 89 02 	lds	r22, 0x0289
    359a:	70 91 8a 02 	lds	r23, 0x028A
    359e:	80 91 7f 02 	lds	r24, 0x027F
    35a2:	90 91 80 02 	lds	r25, 0x0280
    35a6:	a0 91 81 02 	lds	r26, 0x0281
    35aa:	b0 91 82 02 	lds	r27, 0x0282
    35ae:	84 17       	cp	r24, r20
    35b0:	95 07       	cpc	r25, r21
    35b2:	a6 07       	cpc	r26, r22
    35b4:	b7 07       	cpc	r27, r23
    35b6:	08 f0       	brcs	.+2      	; 0x35ba <_Z13check_for_boxv+0xc2>
    35b8:	ab c0       	rjmp	.+342    	; 0x3710 <_Z13check_for_boxv+0x218>
    35ba:	80 91 87 02 	lds	r24, 0x0287
    35be:	90 91 88 02 	lds	r25, 0x0288
    35c2:	a0 91 89 02 	lds	r26, 0x0289
    35c6:	b0 91 8a 02 	lds	r27, 0x028A
    35ca:	89 3b       	cpi	r24, 0xB9	; 185
    35cc:	9b 40       	sbci	r25, 0x0B	; 11
    35ce:	a1 05       	cpc	r26, r1
    35d0:	b1 05       	cpc	r27, r1
    35d2:	08 f0       	brcs	.+2      	; 0x35d6 <_Z13check_for_boxv+0xde>
    35d4:	86 c0       	rjmp	.+268    	; 0x36e2 <_Z13check_for_boxv+0x1ea>
    35d6:	9c c0       	rjmp	.+312    	; 0x3710 <_Z13check_for_boxv+0x218>
		{
			lcd_wr_command(0x01);
			lcd_string("Result= RED");
			if (r_counter<=2*red_count)
			{
				pickup();
    35d8:	c7 da       	rcall	.-2674   	; 0x2b68 <_Z6pickupv>
				r_counter++;
    35da:	80 91 02 02 	lds	r24, 0x0202
    35de:	8f 5f       	subi	r24, 0xFF	; 255
    35e0:	80 93 02 02 	sts	0x0202, r24
				return(10);
    35e4:	8a e0       	ldi	r24, 0x0A	; 10
    35e6:	90 e0       	ldi	r25, 0x00	; 0
    35e8:	08 95       	ret
			
			
			
		
		}
		else if ((Blue>Red)&&(Blue>Green)&&(Blue>THRESHOLD))
    35ea:	40 91 83 02 	lds	r20, 0x0283
    35ee:	50 91 84 02 	lds	r21, 0x0284
    35f2:	60 91 85 02 	lds	r22, 0x0285
    35f6:	70 91 86 02 	lds	r23, 0x0286
    35fa:	80 91 7f 02 	lds	r24, 0x027F
    35fe:	90 91 80 02 	lds	r25, 0x0280
    3602:	a0 91 81 02 	lds	r26, 0x0281
    3606:	b0 91 82 02 	lds	r27, 0x0282
    360a:	84 17       	cp	r24, r20
    360c:	95 07       	cpc	r25, r21
    360e:	a6 07       	cpc	r26, r22
    3610:	b7 07       	cpc	r27, r23
    3612:	08 f0       	brcs	.+2      	; 0x3616 <_Z13check_for_boxv+0x11e>
    3614:	ab c0       	rjmp	.+342    	; 0x376c <_Z13check_for_boxv+0x274>
    3616:	80 91 83 02 	lds	r24, 0x0283
    361a:	90 91 84 02 	lds	r25, 0x0284
    361e:	a0 91 85 02 	lds	r26, 0x0285
    3622:	b0 91 86 02 	lds	r27, 0x0286
    3626:	89 3b       	cpi	r24, 0xB9	; 185
    3628:	9b 40       	sbci	r25, 0x0B	; 11
    362a:	a1 05       	cpc	r26, r1
    362c:	b1 05       	cpc	r27, r1
    362e:	08 f0       	brcs	.+2      	; 0x3632 <_Z13check_for_boxv+0x13a>
    3630:	86 c0       	rjmp	.+268    	; 0x373e <_Z13check_for_boxv+0x246>
    3632:	9c c0       	rjmp	.+312    	; 0x376c <_Z13check_for_boxv+0x274>
		{
			lcd_wr_command(0x01);
			lcd_string("Result= BLUE");
			if (b_counter<=2*blue_count )
			{
				pickup();
    3634:	99 da       	rcall	.-2766   	; 0x2b68 <_Z6pickupv>
				b_counter++;
    3636:	80 91 01 02 	lds	r24, 0x0201
    363a:	8f 5f       	subi	r24, 0xFF	; 255
    363c:	80 93 01 02 	sts	0x0201, r24
				return(12);
    3640:	8c e0       	ldi	r24, 0x0C	; 12
    3642:	90 e0       	ldi	r25, 0x00	; 0
    3644:	08 95       	ret
				_delay_ms(500);
			}
			else return 0;
			
		}
		else if ((Green>Red)&&(Green>Blue)&&(Green>THRESHOLD))
    3646:	40 91 7f 02 	lds	r20, 0x027F
    364a:	50 91 80 02 	lds	r21, 0x0280
    364e:	60 91 81 02 	lds	r22, 0x0281
    3652:	70 91 82 02 	lds	r23, 0x0282
    3656:	80 91 83 02 	lds	r24, 0x0283
    365a:	90 91 84 02 	lds	r25, 0x0284
    365e:	a0 91 85 02 	lds	r26, 0x0285
    3662:	b0 91 86 02 	lds	r27, 0x0286
    3666:	84 17       	cp	r24, r20
    3668:	95 07       	cpc	r25, r21
    366a:	a6 07       	cpc	r26, r22
    366c:	b7 07       	cpc	r27, r23
    366e:	08 f0       	brcs	.+2      	; 0x3672 <_Z13check_for_boxv+0x17a>
    3670:	ab c0       	rjmp	.+342    	; 0x37c8 <_Z13check_for_boxv+0x2d0>
    3672:	80 91 7f 02 	lds	r24, 0x027F
    3676:	90 91 80 02 	lds	r25, 0x0280
    367a:	a0 91 81 02 	lds	r26, 0x0281
    367e:	b0 91 82 02 	lds	r27, 0x0282
    3682:	89 3b       	cpi	r24, 0xB9	; 185
    3684:	9b 40       	sbci	r25, 0x0B	; 11
    3686:	a1 05       	cpc	r26, r1
    3688:	b1 05       	cpc	r27, r1
    368a:	08 f0       	brcs	.+2      	; 0x368e <_Z13check_for_boxv+0x196>
    368c:	86 c0       	rjmp	.+268    	; 0x379a <_Z13check_for_boxv+0x2a2>
    368e:	9c c0       	rjmp	.+312    	; 0x37c8 <_Z13check_for_boxv+0x2d0>
		{
			lcd_wr_command(0x01);
			lcd_string("Result= GREEN");
			if (g_counter<=2*green_count )
			{
				pickup();
    3690:	6b da       	rcall	.-2858   	; 0x2b68 <_Z6pickupv>
				g_counter++;
    3692:	80 91 00 02 	lds	r24, 0x0200
    3696:	8f 5f       	subi	r24, 0xFF	; 255
    3698:	80 93 00 02 	sts	0x0200, r24
				return(11);
    369c:	8b e0       	ldi	r24, 0x0B	; 11
    369e:	90 e0       	ldi	r25, 0x00	; 0
    36a0:	08 95       	ret
				_delay_ms(500);
			}
			else return 0;
			
		}
		else if((Green<THRESHOLD)&&(Red<THRESHOLD)&&(Blue<THRESHOLD))
    36a2:	80 91 87 02 	lds	r24, 0x0287
    36a6:	90 91 88 02 	lds	r25, 0x0288
    36aa:	a0 91 89 02 	lds	r26, 0x0289
    36ae:	b0 91 8a 02 	lds	r27, 0x028A
    36b2:	88 3b       	cpi	r24, 0xB8	; 184
    36b4:	9b 40       	sbci	r25, 0x0B	; 11
    36b6:	a1 05       	cpc	r26, r1
    36b8:	b1 05       	cpc	r27, r1
    36ba:	08 f0       	brcs	.+2      	; 0x36be <_Z13check_for_boxv+0x1c6>
    36bc:	9e c0       	rjmp	.+316    	; 0x37fa <_Z13check_for_boxv+0x302>
    36be:	80 91 83 02 	lds	r24, 0x0283
    36c2:	90 91 84 02 	lds	r25, 0x0284
    36c6:	a0 91 85 02 	lds	r26, 0x0285
    36ca:	b0 91 86 02 	lds	r27, 0x0286
    36ce:	88 3b       	cpi	r24, 0xB8	; 184
    36d0:	9b 40       	sbci	r25, 0x0B	; 11
    36d2:	a1 05       	cpc	r26, r1
    36d4:	b1 05       	cpc	r27, r1
    36d6:	08 f4       	brcc	.+2      	; 0x36da <_Z13check_for_boxv+0x1e2>
    36d8:	86 c0       	rjmp	.+268    	; 0x37e6 <_Z13check_for_boxv+0x2ee>
    36da:	8f c0       	rjmp	.+286    	; 0x37fa <_Z13check_for_boxv+0x302>
			_delay_ms(500);
		}
		lcd_wr_command(0x01);
	}
		
	else return 0;
    36dc:	80 e0       	ldi	r24, 0x00	; 0
    36de:	90 e0       	ldi	r25, 0x00	; 0
    36e0:	08 95       	ret
		_delay_ms(500);
		blue_read(); //display the pulse count when blue filter is selected
		_delay_ms(500);
		if ((Red>Blue)&&(Red>Green)&&(Red>THRESHOLD))
		{
			lcd_wr_command(0x01);
    36e2:	81 e0       	ldi	r24, 0x01	; 1
    36e4:	0e 94 e9 12 	call	0x25d2	; 0x25d2 <_Z14lcd_wr_commandh>
			lcd_string("Result= RED");
    36e8:	8b e3       	ldi	r24, 0x3B	; 59
    36ea:	92 e0       	ldi	r25, 0x02	; 2
    36ec:	0e 94 47 13 	call	0x268e	; 0x268e <_Z10lcd_stringPKc>
			if (r_counter<=2*red_count)
    36f0:	20 91 02 02 	lds	r18, 0x0202
    36f4:	30 e0       	ldi	r19, 0x00	; 0
    36f6:	80 91 7d 02 	lds	r24, 0x027D
    36fa:	90 91 7e 02 	lds	r25, 0x027E
    36fe:	88 0f       	add	r24, r24
    3700:	99 1f       	adc	r25, r25
    3702:	82 17       	cp	r24, r18
    3704:	93 07       	cpc	r25, r19
    3706:	0c f0       	brlt	.+2      	; 0x370a <_Z13check_for_boxv+0x212>
    3708:	67 cf       	rjmp	.-306    	; 0x35d8 <_Z13check_for_boxv+0xe0>
				pickup();
				r_counter++;
				return(10);
				_delay_ms(500);
			}
			else return 0;
    370a:	80 e0       	ldi	r24, 0x00	; 0
    370c:	90 e0       	ldi	r25, 0x00	; 0
    370e:	08 95       	ret
			
			
			
		
		}
		else if ((Blue>Red)&&(Blue>Green)&&(Blue>THRESHOLD))
    3710:	40 91 83 02 	lds	r20, 0x0283
    3714:	50 91 84 02 	lds	r21, 0x0284
    3718:	60 91 85 02 	lds	r22, 0x0285
    371c:	70 91 86 02 	lds	r23, 0x0286
    3720:	80 91 87 02 	lds	r24, 0x0287
    3724:	90 91 88 02 	lds	r25, 0x0288
    3728:	a0 91 89 02 	lds	r26, 0x0289
    372c:	b0 91 8a 02 	lds	r27, 0x028A
    3730:	84 17       	cp	r24, r20
    3732:	95 07       	cpc	r25, r21
    3734:	a6 07       	cpc	r26, r22
    3736:	b7 07       	cpc	r27, r23
    3738:	08 f4       	brcc	.+2      	; 0x373c <_Z13check_for_boxv+0x244>
    373a:	57 cf       	rjmp	.-338    	; 0x35ea <_Z13check_for_boxv+0xf2>
    373c:	17 c0       	rjmp	.+46     	; 0x376c <_Z13check_for_boxv+0x274>
		{
			lcd_wr_command(0x01);
    373e:	81 e0       	ldi	r24, 0x01	; 1
    3740:	0e 94 e9 12 	call	0x25d2	; 0x25d2 <_Z14lcd_wr_commandh>
			lcd_string("Result= BLUE");
    3744:	87 e4       	ldi	r24, 0x47	; 71
    3746:	92 e0       	ldi	r25, 0x02	; 2
    3748:	0e 94 47 13 	call	0x268e	; 0x268e <_Z10lcd_stringPKc>
			if (b_counter<=2*blue_count )
    374c:	20 91 01 02 	lds	r18, 0x0201
    3750:	30 e0       	ldi	r19, 0x00	; 0
    3752:	80 91 79 02 	lds	r24, 0x0279
    3756:	90 91 7a 02 	lds	r25, 0x027A
    375a:	88 0f       	add	r24, r24
    375c:	99 1f       	adc	r25, r25
    375e:	82 17       	cp	r24, r18
    3760:	93 07       	cpc	r25, r19
    3762:	0c f0       	brlt	.+2      	; 0x3766 <_Z13check_for_boxv+0x26e>
    3764:	67 cf       	rjmp	.-306    	; 0x3634 <_Z13check_for_boxv+0x13c>
				pickup();
				b_counter++;
				return(12);
				_delay_ms(500);
			}
			else return 0;
    3766:	80 e0       	ldi	r24, 0x00	; 0
    3768:	90 e0       	ldi	r25, 0x00	; 0
    376a:	08 95       	ret
			
		}
		else if ((Green>Red)&&(Green>Blue)&&(Green>THRESHOLD))
    376c:	40 91 7f 02 	lds	r20, 0x027F
    3770:	50 91 80 02 	lds	r21, 0x0280
    3774:	60 91 81 02 	lds	r22, 0x0281
    3778:	70 91 82 02 	lds	r23, 0x0282
    377c:	80 91 87 02 	lds	r24, 0x0287
    3780:	90 91 88 02 	lds	r25, 0x0288
    3784:	a0 91 89 02 	lds	r26, 0x0289
    3788:	b0 91 8a 02 	lds	r27, 0x028A
    378c:	84 17       	cp	r24, r20
    378e:	95 07       	cpc	r25, r21
    3790:	a6 07       	cpc	r26, r22
    3792:	b7 07       	cpc	r27, r23
    3794:	08 f4       	brcc	.+2      	; 0x3798 <_Z13check_for_boxv+0x2a0>
    3796:	57 cf       	rjmp	.-338    	; 0x3646 <_Z13check_for_boxv+0x14e>
    3798:	17 c0       	rjmp	.+46     	; 0x37c8 <_Z13check_for_boxv+0x2d0>
		{
			lcd_wr_command(0x01);
    379a:	81 e0       	ldi	r24, 0x01	; 1
    379c:	0e 94 e9 12 	call	0x25d2	; 0x25d2 <_Z14lcd_wr_commandh>
			lcd_string("Result= GREEN");
    37a0:	84 e5       	ldi	r24, 0x54	; 84
    37a2:	92 e0       	ldi	r25, 0x02	; 2
    37a4:	0e 94 47 13 	call	0x268e	; 0x268e <_Z10lcd_stringPKc>
			if (g_counter<=2*green_count )
    37a8:	20 91 00 02 	lds	r18, 0x0200
    37ac:	30 e0       	ldi	r19, 0x00	; 0
    37ae:	80 91 7b 02 	lds	r24, 0x027B
    37b2:	90 91 7c 02 	lds	r25, 0x027C
    37b6:	88 0f       	add	r24, r24
    37b8:	99 1f       	adc	r25, r25
    37ba:	82 17       	cp	r24, r18
    37bc:	93 07       	cpc	r25, r19
    37be:	0c f0       	brlt	.+2      	; 0x37c2 <_Z13check_for_boxv+0x2ca>
    37c0:	67 cf       	rjmp	.-306    	; 0x3690 <_Z13check_for_boxv+0x198>
				g_counter++;
				return(11);
				
				_delay_ms(500);
			}
			else return 0;
    37c2:	80 e0       	ldi	r24, 0x00	; 0
    37c4:	90 e0       	ldi	r25, 0x00	; 0
    37c6:	08 95       	ret
			
		}
		else if((Green<THRESHOLD)&&(Red<THRESHOLD)&&(Blue<THRESHOLD))
    37c8:	80 91 7f 02 	lds	r24, 0x027F
    37cc:	90 91 80 02 	lds	r25, 0x0280
    37d0:	a0 91 81 02 	lds	r26, 0x0281
    37d4:	b0 91 82 02 	lds	r27, 0x0282
    37d8:	88 3b       	cpi	r24, 0xB8	; 184
    37da:	9b 40       	sbci	r25, 0x0B	; 11
    37dc:	a1 05       	cpc	r26, r1
    37de:	b1 05       	cpc	r27, r1
    37e0:	08 f4       	brcc	.+2      	; 0x37e4 <_Z13check_for_boxv+0x2ec>
    37e2:	5f cf       	rjmp	.-322    	; 0x36a2 <_Z13check_for_boxv+0x1aa>
    37e4:	0a c0       	rjmp	.+20     	; 0x37fa <_Z13check_for_boxv+0x302>
		{
			lcd_wr_command(0x01);
    37e6:	81 e0       	ldi	r24, 0x01	; 1
    37e8:	0e 94 e9 12 	call	0x25d2	; 0x25d2 <_Z14lcd_wr_commandh>
			lcd_string("Result= BLACK");
    37ec:	82 e6       	ldi	r24, 0x62	; 98
    37ee:	92 e0       	ldi	r25, 0x02	; 2
    37f0:	0e 94 47 13 	call	0x268e	; 0x268e <_Z10lcd_stringPKc>
			
			//buzzers on for 1 sec
			return(-1);
    37f4:	8f ef       	ldi	r24, 0xFF	; 255
    37f6:	9f ef       	ldi	r25, 0xFF	; 255
    37f8:	08 95       	ret
			_delay_ms(500);
		}
		lcd_wr_command(0x01);
    37fa:	81 e0       	ldi	r24, 0x01	; 1
    37fc:	0c 94 e9 12 	jmp	0x25d2	; 0x25d2 <_Z14lcd_wr_commandh>
	}
		
	else return 0;
}
    3800:	08 95       	ret

00003802 <_Z9checknodev>:

int checknode()
{
	Left_white_line = ADC_Conversion(3);	//Getting data of Left WL Sensor
    3802:	83 e0       	ldi	r24, 0x03	; 3
    3804:	b3 dc       	rcall	.-1690   	; 0x316c <_Z14ADC_Conversionh>
    3806:	80 93 16 1e 	sts	0x1E16, r24
	Center_white_line = ADC_Conversion(2);	//Getting data of Center WL Sensor
    380a:	82 e0       	ldi	r24, 0x02	; 2
    380c:	af dc       	rcall	.-1698   	; 0x316c <_Z14ADC_Conversionh>
    380e:	80 93 15 1e 	sts	0x1E15, r24
	Right_white_line = ADC_Conversion(1);	//Getting data of Right WL Sensor
    3812:	81 e0       	ldi	r24, 0x01	; 1
    3814:	ab dc       	rcall	.-1706   	; 0x316c <_Z14ADC_Conversionh>
    3816:	80 93 14 1e 	sts	0x1E14, r24
	if((Left_white_line>TH_LEFT &&Center_white_line>TH_CENTER)||(Center_white_line>TH_CENTER&& Right_white_line>TH_RIGHT)||(Right_white_line>TH_RIGHT &&Center_white_line>TH_CENTER&&Left_white_line>TH_LEFT))//||(Center_white_line>TH_CENTER01))
    381a:	90 91 16 1e 	lds	r25, 0x1E16
    381e:	95 36       	cpi	r25, 0x65	; 101
    3820:	38 f0       	brcs	.+14     	; 0x3830 <_Z9checknodev+0x2e>
    3822:	80 91 15 1e 	lds	r24, 0x1E15
    3826:	85 36       	cpi	r24, 0x65	; 101
    3828:	48 f4       	brcc	.+18     	; 0x383c <_Z9checknodev+0x3a>
	{
		DDRJ=0xFF;
		PORTJ=0x80;
		return 1;
	}
	else return 0;	
    382a:	80 e0       	ldi	r24, 0x00	; 0
    382c:	90 e0       	ldi	r25, 0x00	; 0
    382e:	08 95       	ret
int checknode()
{
	Left_white_line = ADC_Conversion(3);	//Getting data of Left WL Sensor
	Center_white_line = ADC_Conversion(2);	//Getting data of Center WL Sensor
	Right_white_line = ADC_Conversion(1);	//Getting data of Right WL Sensor
	if((Left_white_line>TH_LEFT &&Center_white_line>TH_CENTER)||(Center_white_line>TH_CENTER&& Right_white_line>TH_RIGHT)||(Right_white_line>TH_RIGHT &&Center_white_line>TH_CENTER&&Left_white_line>TH_LEFT))//||(Center_white_line>TH_CENTER01))
    3830:	90 91 15 1e 	lds	r25, 0x1E15
    3834:	95 36       	cpi	r25, 0x65	; 101
    3836:	58 f0       	brcs	.+22     	; 0x384e <_Z9checknodev+0x4c>
    3838:	85 36       	cpi	r24, 0x65	; 101
    383a:	60 f0       	brcs	.+24     	; 0x3854 <_Z9checknodev+0x52>
	{
		DDRJ=0xFF;
    383c:	8f ef       	ldi	r24, 0xFF	; 255
    383e:	80 93 04 01 	sts	0x0104, r24
		PORTJ=0x80;
    3842:	80 e8       	ldi	r24, 0x80	; 128
    3844:	80 93 05 01 	sts	0x0105, r24
		return 1;
    3848:	81 e0       	ldi	r24, 0x01	; 1
    384a:	90 e0       	ldi	r25, 0x00	; 0
    384c:	08 95       	ret
	}
	else return 0;	
    384e:	80 e0       	ldi	r24, 0x00	; 0
    3850:	90 e0       	ldi	r25, 0x00	; 0
    3852:	08 95       	ret
    3854:	80 e0       	ldi	r24, 0x00	; 0
    3856:	90 e0       	ldi	r25, 0x00	; 0
}
    3858:	08 95       	ret

0000385a <_Z6dropitv>:
void dropit()
{  
	if(Current->XPOS==2 || Current->XPOS==10)
    385a:	e0 91 67 03 	lds	r30, 0x0367
    385e:	f0 91 68 03 	lds	r31, 0x0368
    3862:	85 81       	ldd	r24, Z+5	; 0x05
    3864:	96 81       	ldd	r25, Z+6	; 0x06
    3866:	9c 01       	movw	r18, r24
    3868:	27 7f       	andi	r18, 0xF7	; 247
    386a:	22 30       	cpi	r18, 0x02	; 2
    386c:	31 05       	cpc	r19, r1
    386e:	21 f4       	brne	.+8      	; 0x3878 <_Z6dropitv+0x1e>
	{
		MakeDirectionExclusivelyForDropPoint(2);
    3870:	82 e0       	ldi	r24, 0x02	; 2
    3872:	90 e0       	ldi	r25, 0x00	; 0
    3874:	6d dd       	rcall	.-1318   	; 0x3350 <_Z36MakeDirectionExclusivelyForDropPointi>
    3876:	17 c0       	rjmp	.+46     	; 0x38a6 <_Z6dropitv+0x4c>
	}
	else if(Current->XPOS==4 || Current->XPOS==13)
    3878:	84 30       	cpi	r24, 0x04	; 4
    387a:	91 05       	cpc	r25, r1
    387c:	11 f0       	breq	.+4      	; 0x3882 <_Z6dropitv+0x28>
    387e:	0d 97       	sbiw	r24, 0x0d	; 13
    3880:	21 f4       	brne	.+8      	; 0x388a <_Z6dropitv+0x30>
	{
		
		MakeDirectionExclusivelyForDropPoint(4);
    3882:	84 e0       	ldi	r24, 0x04	; 4
    3884:	90 e0       	ldi	r25, 0x00	; 0
    3886:	64 dd       	rcall	.-1336   	; 0x3350 <_Z36MakeDirectionExclusivelyForDropPointi>
    3888:	0e c0       	rjmp	.+28     	; 0x38a6 <_Z6dropitv+0x4c>
	}
	else if(Current->YPOS==3)
    388a:	87 81       	ldd	r24, Z+7	; 0x07
    388c:	90 85       	ldd	r25, Z+8	; 0x08
    388e:	83 30       	cpi	r24, 0x03	; 3
    3890:	91 05       	cpc	r25, r1
    3892:	21 f4       	brne	.+8      	; 0x389c <_Z6dropitv+0x42>
	{
		MakeDirectionExclusivelyForDropPoint(1);
    3894:	81 e0       	ldi	r24, 0x01	; 1
    3896:	90 e0       	ldi	r25, 0x00	; 0
    3898:	5b dd       	rcall	.-1354   	; 0x3350 <_Z36MakeDirectionExclusivelyForDropPointi>
    389a:	05 c0       	rjmp	.+10     	; 0x38a6 <_Z6dropitv+0x4c>
	}
	else if (Current->YPOS==5)
    389c:	05 97       	sbiw	r24, 0x05	; 5
    389e:	19 f4       	brne	.+6      	; 0x38a6 <_Z6dropitv+0x4c>
	{
		MakeDirectionExclusivelyForDropPoint(3);
    38a0:	83 e0       	ldi	r24, 0x03	; 3
    38a2:	90 e0       	ldi	r25, 0x00	; 0
    38a4:	55 dd       	rcall	.-1366   	; 0x3350 <_Z36MakeDirectionExclusivelyForDropPointi>
	}
	back_mm(30);
    38a6:	8e e1       	ldi	r24, 0x1E	; 30
    38a8:	90 e0       	ldi	r25, 0x00	; 0
    38aa:	0e 94 8d 01 	call	0x31a	; 0x31a <_Z7back_mmj>
//Function to rotate Servo 1 by a specified angle in the multiples of 1.86 degrees
void servo_1(unsigned char degrees)  
{
 float PositionPanServo = 0;
  PositionPanServo = ((float)degrees / 1.86) + 35.0;
 OCR1AH = 0x00;
    38ae:	10 92 89 00 	sts	0x0089, r1
 OCR1AL = (unsigned char) PositionPanServo;
    38b2:	88 e5       	ldi	r24, 0x58	; 88
    38b4:	80 93 88 00 	sts	0x0088, r24
    38b8:	2f ef       	ldi	r18, 0xFF	; 255
    38ba:	8f ef       	ldi	r24, 0xFF	; 255
    38bc:	9c e2       	ldi	r25, 0x2C	; 44
    38be:	21 50       	subi	r18, 0x01	; 1
    38c0:	80 40       	sbci	r24, 0x00	; 0
    38c2:	90 40       	sbci	r25, 0x00	; 0
    38c4:	e1 f7       	brne	.-8      	; 0x38be <_Z6dropitv+0x64>
    38c6:	00 c0       	rjmp	.+0      	; 0x38c8 <_Z6dropitv+0x6e>
    38c8:	00 00       	nop
//Function to rotate Servo 2 by a specified angle in the multiples of 1.86 degrees
void servo_2(unsigned char degrees)
{
 float PositionTiltServo = 0;
 PositionTiltServo = ((float)degrees / 1.86) + 35.0;
 OCR1BH = 0x00;
    38ca:	10 92 8b 00 	sts	0x008B, r1
 OCR1BL = (unsigned char) PositionTiltServo;
    38ce:	88 e5       	ldi	r24, 0x58	; 88
    38d0:	80 93 8a 00 	sts	0x008A, r24
    38d4:	2f ef       	ldi	r18, 0xFF	; 255
    38d6:	8f ef       	ldi	r24, 0xFF	; 255
    38d8:	9c e2       	ldi	r25, 0x2C	; 44
    38da:	21 50       	subi	r18, 0x01	; 1
    38dc:	80 40       	sbci	r24, 0x00	; 0
    38de:	90 40       	sbci	r25, 0x00	; 0
    38e0:	e1 f7       	brne	.-8      	; 0x38da <_Z6dropitv+0x80>
    38e2:	00 c0       	rjmp	.+0      	; 0x38e4 <_Z6dropitv+0x8a>
    38e4:	00 00       	nop
    38e6:	2f ef       	ldi	r18, 0xFF	; 255
    38e8:	8f ef       	ldi	r24, 0xFF	; 255
    38ea:	9c e2       	ldi	r25, 0x2C	; 44
    38ec:	21 50       	subi	r18, 0x01	; 1
    38ee:	80 40       	sbci	r24, 0x00	; 0
    38f0:	90 40       	sbci	r25, 0x00	; 0
    38f2:	e1 f7       	brne	.-8      	; 0x38ec <_Z6dropitv+0x92>
    38f4:	00 c0       	rjmp	.+0      	; 0x38f6 <_Z6dropitv+0x9c>
    38f6:	00 00       	nop
//Function to rotate Servo 1 by a specified angle in the multiples of 1.86 degrees
void servo_1(unsigned char degrees)  
{
 float PositionPanServo = 0;
  PositionPanServo = ((float)degrees / 1.86) + 35.0;
 OCR1AH = 0x00;
    38f8:	10 92 89 00 	sts	0x0089, r1
 OCR1AL = (unsigned char) PositionPanServo;
    38fc:	83 e8       	ldi	r24, 0x83	; 131
    38fe:	80 93 88 00 	sts	0x0088, r24
    3902:	2f ef       	ldi	r18, 0xFF	; 255
    3904:	8f ef       	ldi	r24, 0xFF	; 255
    3906:	9c e2       	ldi	r25, 0x2C	; 44
    3908:	21 50       	subi	r18, 0x01	; 1
    390a:	80 40       	sbci	r24, 0x00	; 0
    390c:	90 40       	sbci	r25, 0x00	; 0
    390e:	e1 f7       	brne	.-8      	; 0x3908 <_Z6dropitv+0xae>
    3910:	00 c0       	rjmp	.+0      	; 0x3912 <_Z6dropitv+0xb8>
    3912:	00 00       	nop
	_delay_ms(1000);
	
	_delay_ms(1000);
	servo_1(180);
	_delay_ms(1000);
	servo_1_free();
    3914:	1b d9       	rcall	.-3530   	; 0x2b4c <_Z12servo_1_freev>
	servo_2_free();
    3916:	21 d9       	rcall	.-3518   	; 0x2b5a <_Z12servo_2_freev>
	Current->flag=1;
    3918:	e0 91 67 03 	lds	r30, 0x0367
    391c:	f0 91 68 03 	lds	r31, 0x0368
    3920:	81 e0       	ldi	r24, 0x01	; 1
    3922:	90 e0       	ldi	r25, 0x00	; 0
    3924:	93 83       	std	Z+3, r25	; 0x03
    3926:	82 83       	std	Z+2, r24	; 0x02
	obj[PickupPointXpos][PickupPointYpos].flag=1;
    3928:	20 91 75 02 	lds	r18, 0x0275
    392c:	30 91 76 02 	lds	r19, 0x0276
    3930:	60 91 77 02 	lds	r22, 0x0277
    3934:	70 91 78 02 	lds	r23, 0x0278
    3938:	41 e1       	ldi	r20, 0x11	; 17
    393a:	42 9f       	mul	r20, r18
    393c:	f0 01       	movw	r30, r0
    393e:	43 9f       	mul	r20, r19
    3940:	f0 0d       	add	r31, r0
    3942:	11 24       	eor	r1, r1
    3944:	44 e5       	ldi	r20, 0x54	; 84
    3946:	51 e0       	ldi	r21, 0x01	; 1
    3948:	64 9f       	mul	r22, r20
    394a:	90 01       	movw	r18, r0
    394c:	65 9f       	mul	r22, r21
    394e:	30 0d       	add	r19, r0
    3950:	74 9f       	mul	r23, r20
    3952:	30 0d       	add	r19, r0
    3954:	11 24       	eor	r1, r1
    3956:	e2 0f       	add	r30, r18
    3958:	f3 1f       	adc	r31, r19
    395a:	e4 58       	subi	r30, 0x84	; 132
    395c:	fc 4f       	sbci	r31, 0xFC	; 252
    395e:	93 83       	std	Z+3, r25	; 0x03
    3960:	82 83       	std	Z+2, r24	; 0x02
    3962:	08 95       	ret

00003964 <_Z15move_after_nodev>:
	
}

void move_after_node()
{
	motion_set(0x06);
    3964:	86 e0       	ldi	r24, 0x06	; 6
    3966:	0e 94 41 01 	call	0x282	; 0x282 <_Z10motion_seth>
	sei();   // Enables the global interrupt
}

void velocity (unsigned char left_motor, unsigned char right_motor)
{
	OCR5AL = (unsigned char)left_motor;
    396a:	80 ef       	ldi	r24, 0xF0	; 240
    396c:	80 93 28 01 	sts	0x0128, r24
	OCR5BL = (unsigned char)right_motor;
    3970:	86 ee       	ldi	r24, 0xE6	; 230
    3972:	80 93 2a 01 	sts	0x012A, r24
	velocity(240,230);
	linear_distance_mm(80);
    3976:	80 e5       	ldi	r24, 0x50	; 80
    3978:	90 e0       	ldi	r25, 0x00	; 0
    397a:	0c 94 5c 01 	jmp	0x2b8	; 0x2b8 <_Z18linear_distance_mmj>
    397e:	08 95       	ret

00003980 <_Z8stepmovei>:
	velocity(200,200);
	
}

void stepmove(int a)
{
    3980:	df 92       	push	r13
    3982:	ef 92       	push	r14
    3984:	ff 92       	push	r15
    3986:	0f 93       	push	r16
    3988:	1f 93       	push	r17
    398a:	cf 93       	push	r28
    398c:	df 93       	push	r29
	
		for (int i=0;i<30*a;i++)
    398e:	2e e1       	ldi	r18, 0x1E	; 30
    3990:	28 9f       	mul	r18, r24
    3992:	80 01       	movw	r16, r0
    3994:	29 9f       	mul	r18, r25
    3996:	10 0d       	add	r17, r0
    3998:	11 24       	eor	r1, r1
    399a:	10 16       	cp	r1, r16
    399c:	11 06       	cpc	r1, r17
    399e:	24 f5       	brge	.+72     	; 0x39e8 <_Z8stepmovei+0x68>
    39a0:	c0 e0       	ldi	r28, 0x00	; 0
    39a2:	d0 e0       	ldi	r29, 0x00	; 0
		{
			_delay_ms(1);
			forward_mm(1);
			_delay_ms(2);
			line_check();
			DDRJ=0xff;
    39a4:	68 94       	set
    39a6:	ee 24       	eor	r14, r14
    39a8:	e2 f8       	bld	r14, 2
    39aa:	ff 24       	eor	r15, r15
    39ac:	f3 94       	inc	r15
    39ae:	dd 24       	eor	r13, r13
    39b0:	da 94       	dec	r13
    39b2:	86 e6       	ldi	r24, 0x66	; 102
    39b4:	9e e0       	ldi	r25, 0x0E	; 14
    39b6:	01 97       	sbiw	r24, 0x01	; 1
    39b8:	f1 f7       	brne	.-4      	; 0x39b6 <_Z8stepmovei+0x36>
    39ba:	00 00       	nop
{
	
		for (int i=0;i<30*a;i++)
		{
			_delay_ms(1);
			forward_mm(1);
    39bc:	81 e0       	ldi	r24, 0x01	; 1
    39be:	90 e0       	ldi	r25, 0x00	; 0
    39c0:	0e 94 84 01 	call	0x308	; 0x308 <_Z10forward_mmj>
    39c4:	ec ec       	ldi	r30, 0xCC	; 204
    39c6:	fc e1       	ldi	r31, 0x1C	; 28
    39c8:	31 97       	sbiw	r30, 0x01	; 1
    39ca:	f1 f7       	brne	.-4      	; 0x39c8 <_Z8stepmovei+0x48>
    39cc:	00 c0       	rjmp	.+0      	; 0x39ce <_Z8stepmovei+0x4e>
    39ce:	00 00       	nop
			_delay_ms(2);
			line_check();
    39d0:	e4 dc       	rcall	.-1592   	; 0x339a <_Z10line_checkv>
			DDRJ=0xff;
    39d2:	f7 01       	movw	r30, r14
    39d4:	d0 82       	st	Z, r13
			//PORTJ=i+1;
			if (checknode())
    39d6:	15 df       	rcall	.-470    	; 0x3802 <_Z9checknodev>
    39d8:	89 2b       	or	r24, r25
    39da:	11 f0       	breq	.+4      	; 0x39e0 <_Z8stepmovei+0x60>
			{

				move_after_node();
    39dc:	c3 df       	rcall	.-122    	; 0x3964 <_Z15move_after_nodev>
				break;
    39de:	04 c0       	rjmp	.+8      	; 0x39e8 <_Z8stepmovei+0x68>
}

void stepmove(int a)
{
	
		for (int i=0;i<30*a;i++)
    39e0:	21 96       	adiw	r28, 0x01	; 1
    39e2:	c0 17       	cp	r28, r16
    39e4:	d1 07       	cpc	r29, r17
    39e6:	29 f7       	brne	.-54     	; 0x39b2 <_Z8stepmovei+0x32>
				break;
			}
		}
	
	
}
    39e8:	df 91       	pop	r29
    39ea:	cf 91       	pop	r28
    39ec:	1f 91       	pop	r17
    39ee:	0f 91       	pop	r16
    39f0:	ff 90       	pop	r15
    39f2:	ef 90       	pop	r14
    39f4:	df 90       	pop	r13
    39f6:	08 95       	ret

000039f8 <_Z4Movev>:
}

void Move()
{
	
	switch(dir)
    39f8:	80 91 72 02 	lds	r24, 0x0272
    39fc:	82 30       	cpi	r24, 0x02	; 2
    39fe:	09 f4       	brne	.+2      	; 0x3a02 <_Z4Movev+0xa>
    3a00:	4f c0       	rjmp	.+158    	; 0x3aa0 <_Z4Movev+0xa8>
    3a02:	18 f4       	brcc	.+6      	; 0x3a0a <_Z4Movev+0x12>
    3a04:	81 30       	cpi	r24, 0x01	; 1
    3a06:	41 f0       	breq	.+16     	; 0x3a18 <_Z4Movev+0x20>
    3a08:	08 95       	ret
    3a0a:	83 30       	cpi	r24, 0x03	; 3
    3a0c:	09 f4       	brne	.+2      	; 0x3a10 <_Z4Movev+0x18>
    3a0e:	85 c0       	rjmp	.+266    	; 0x3b1a <_Z4Movev+0x122>
    3a10:	84 30       	cpi	r24, 0x04	; 4
    3a12:	09 f4       	brne	.+2      	; 0x3a16 <_Z4Movev+0x1e>
    3a14:	c5 c0       	rjmp	.+394    	; 0x3ba0 <_Z4Movev+0x1a8>
    3a16:	08 95       	ret
	{
		case 1:
		{
			
			
			if (Current->type=='c')
    3a18:	e0 91 67 03 	lds	r30, 0x0367
    3a1c:	f0 91 68 03 	lds	r31, 0x0368
    3a20:	84 81       	ldd	r24, Z+4	; 0x04
    3a22:	83 36       	cpi	r24, 0x63	; 99
    3a24:	21 f4       	brne	.+8      	; 0x3a2e <_Z4Movev+0x36>
			{
				stepmove(12);
    3a26:	8c e0       	ldi	r24, 0x0C	; 12
    3a28:	90 e0       	ldi	r25, 0x00	; 0
    3a2a:	aa df       	rcall	.-172    	; 0x3980 <_Z8stepmovei>
    3a2c:	2e c0       	rjmp	.+92     	; 0x3a8a <_Z4Movev+0x92>
			}
			else if(Current->type=='v')
    3a2e:	86 37       	cpi	r24, 0x76	; 118
    3a30:	81 f4       	brne	.+32     	; 0x3a52 <_Z4Movev+0x5a>
			{
				if(Current->N->type=='v') stepmove(24);
    3a32:	01 84       	ldd	r0, Z+9	; 0x09
    3a34:	f2 85       	ldd	r31, Z+10	; 0x0a
    3a36:	e0 2d       	mov	r30, r0
    3a38:	84 81       	ldd	r24, Z+4	; 0x04
    3a3a:	86 37       	cpi	r24, 0x76	; 118
    3a3c:	21 f4       	brne	.+8      	; 0x3a46 <_Z4Movev+0x4e>
    3a3e:	88 e1       	ldi	r24, 0x18	; 24
    3a40:	90 e0       	ldi	r25, 0x00	; 0
    3a42:	9e df       	rcall	.-196    	; 0x3980 <_Z8stepmovei>
    3a44:	22 c0       	rjmp	.+68     	; 0x3a8a <_Z4Movev+0x92>
				else if(Current->N->type=='c') stepmove(12);
    3a46:	83 36       	cpi	r24, 0x63	; 99
    3a48:	01 f5       	brne	.+64     	; 0x3a8a <_Z4Movev+0x92>
    3a4a:	8c e0       	ldi	r24, 0x0C	; 12
    3a4c:	90 e0       	ldi	r25, 0x00	; 0
    3a4e:	98 df       	rcall	.-208    	; 0x3980 <_Z8stepmovei>
    3a50:	1c c0       	rjmp	.+56     	; 0x3a8a <_Z4Movev+0x92>
			}
			else if(Current->type=='h')
    3a52:	88 36       	cpi	r24, 0x68	; 104
    3a54:	21 f4       	brne	.+8      	; 0x3a5e <_Z4Movev+0x66>
			{
				stepmove(12);
    3a56:	8c e0       	ldi	r24, 0x0C	; 12
    3a58:	90 e0       	ldi	r25, 0x00	; 0
    3a5a:	92 df       	rcall	.-220    	; 0x3980 <_Z8stepmovei>
    3a5c:	16 c0       	rjmp	.+44     	; 0x3a8a <_Z4Movev+0x92>
			}
			else if(Current->type=='j')
    3a5e:	8a 36       	cpi	r24, 0x6A	; 106
    3a60:	71 f4       	brne	.+28     	; 0x3a7e <_Z4Movev+0x86>
			{
				if(Current->N->type=='h')
    3a62:	01 84       	ldd	r0, Z+9	; 0x09
    3a64:	f2 85       	ldd	r31, Z+10	; 0x0a
    3a66:	e0 2d       	mov	r30, r0
    3a68:	84 81       	ldd	r24, Z+4	; 0x04
    3a6a:	88 36       	cpi	r24, 0x68	; 104
    3a6c:	21 f4       	brne	.+8      	; 0x3a76 <_Z4Movev+0x7e>
				{
					stepmove(12);
    3a6e:	8c e0       	ldi	r24, 0x0C	; 12
    3a70:	90 e0       	ldi	r25, 0x00	; 0
    3a72:	86 df       	rcall	.-244    	; 0x3980 <_Z8stepmovei>
    3a74:	0a c0       	rjmp	.+20     	; 0x3a8a <_Z4Movev+0x92>
				}
				else stepmove(6);
    3a76:	86 e0       	ldi	r24, 0x06	; 6
    3a78:	90 e0       	ldi	r25, 0x00	; 0
    3a7a:	82 df       	rcall	.-252    	; 0x3980 <_Z8stepmovei>
    3a7c:	06 c0       	rjmp	.+12     	; 0x3a8a <_Z4Movev+0x92>
			}
			else if(Current->type=='s' || Current->type=='S')
    3a7e:	8f 7d       	andi	r24, 0xDF	; 223
    3a80:	83 35       	cpi	r24, 0x53	; 83
    3a82:	19 f4       	brne	.+6      	; 0x3a8a <_Z4Movev+0x92>
			{
				stepmove(6);
    3a84:	86 e0       	ldi	r24, 0x06	; 6
    3a86:	90 e0       	ldi	r25, 0x00	; 0
    3a88:	7b df       	rcall	.-266    	; 0x3980 <_Z8stepmovei>
			}
			Current=Current->N;
    3a8a:	e0 91 67 03 	lds	r30, 0x0367
    3a8e:	f0 91 68 03 	lds	r31, 0x0368
    3a92:	81 85       	ldd	r24, Z+9	; 0x09
    3a94:	92 85       	ldd	r25, Z+10	; 0x0a
    3a96:	90 93 68 03 	sts	0x0368, r25
    3a9a:	80 93 67 03 	sts	0x0367, r24
			break;
    3a9e:	08 95       	ret
		}
		case 2:
		{
			
			if (Current->type=='c')
    3aa0:	e0 91 67 03 	lds	r30, 0x0367
    3aa4:	f0 91 68 03 	lds	r31, 0x0368
    3aa8:	84 81       	ldd	r24, Z+4	; 0x04
    3aaa:	83 36       	cpi	r24, 0x63	; 99
    3aac:	21 f4       	brne	.+8      	; 0x3ab6 <_Z4Movev+0xbe>
			{
				stepmove(9);
    3aae:	89 e0       	ldi	r24, 0x09	; 9
    3ab0:	90 e0       	ldi	r25, 0x00	; 0
    3ab2:	66 df       	rcall	.-308    	; 0x3980 <_Z8stepmovei>
    3ab4:	27 c0       	rjmp	.+78     	; 0x3b04 <_Z4Movev+0x10c>
			}
			else if(Current->type=='v')
    3ab6:	86 37       	cpi	r24, 0x76	; 118
    3ab8:	21 f4       	brne	.+8      	; 0x3ac2 <_Z4Movev+0xca>
			{
				stepmove(12);
    3aba:	8c e0       	ldi	r24, 0x0C	; 12
    3abc:	90 e0       	ldi	r25, 0x00	; 0
    3abe:	60 df       	rcall	.-320    	; 0x3980 <_Z8stepmovei>
    3ac0:	21 c0       	rjmp	.+66     	; 0x3b04 <_Z4Movev+0x10c>
			}
			else if(Current->type=='h')
    3ac2:	88 36       	cpi	r24, 0x68	; 104
    3ac4:	21 f4       	brne	.+8      	; 0x3ace <_Z4Movev+0xd6>
			{
				stepmove(9);
    3ac6:	89 e0       	ldi	r24, 0x09	; 9
    3ac8:	90 e0       	ldi	r25, 0x00	; 0
    3aca:	5a df       	rcall	.-332    	; 0x3980 <_Z8stepmovei>
    3acc:	1b c0       	rjmp	.+54     	; 0x3b04 <_Z4Movev+0x10c>
			}
			else if(Current->type=='j')
    3ace:	8a 36       	cpi	r24, 0x6A	; 106
    3ad0:	21 f4       	brne	.+8      	; 0x3ada <_Z4Movev+0xe2>
			{
				stepmove(12);
    3ad2:	8c e0       	ldi	r24, 0x0C	; 12
    3ad4:	90 e0       	ldi	r25, 0x00	; 0
    3ad6:	54 df       	rcall	.-344    	; 0x3980 <_Z8stepmovei>
    3ad8:	15 c0       	rjmp	.+42     	; 0x3b04 <_Z4Movev+0x10c>
			}
			else if(Current->type=='s')
    3ada:	83 37       	cpi	r24, 0x73	; 115
    3adc:	71 f4       	brne	.+28     	; 0x3afa <_Z4Movev+0x102>
			{
				if(Current->E->type=='S') stepmove(6);
    3ade:	03 84       	ldd	r0, Z+11	; 0x0b
    3ae0:	f4 85       	ldd	r31, Z+12	; 0x0c
    3ae2:	e0 2d       	mov	r30, r0
    3ae4:	84 81       	ldd	r24, Z+4	; 0x04
    3ae6:	83 35       	cpi	r24, 0x53	; 83
    3ae8:	21 f4       	brne	.+8      	; 0x3af2 <_Z4Movev+0xfa>
    3aea:	86 e0       	ldi	r24, 0x06	; 6
    3aec:	90 e0       	ldi	r25, 0x00	; 0
    3aee:	48 df       	rcall	.-368    	; 0x3980 <_Z8stepmovei>
    3af0:	09 c0       	rjmp	.+18     	; 0x3b04 <_Z4Movev+0x10c>
				else stepmove(12);
    3af2:	8c e0       	ldi	r24, 0x0C	; 12
    3af4:	90 e0       	ldi	r25, 0x00	; 0
    3af6:	44 df       	rcall	.-376    	; 0x3980 <_Z8stepmovei>
    3af8:	05 c0       	rjmp	.+10     	; 0x3b04 <_Z4Movev+0x10c>
			}
			else if(Current->type=='S')
    3afa:	83 35       	cpi	r24, 0x53	; 83
    3afc:	19 f4       	brne	.+6      	; 0x3b04 <_Z4Movev+0x10c>
			{
				stepmove(6);
    3afe:	86 e0       	ldi	r24, 0x06	; 6
    3b00:	90 e0       	ldi	r25, 0x00	; 0
    3b02:	3e df       	rcall	.-388    	; 0x3980 <_Z8stepmovei>
			}
			Current=Current->E;
    3b04:	e0 91 67 03 	lds	r30, 0x0367
    3b08:	f0 91 68 03 	lds	r31, 0x0368
    3b0c:	83 85       	ldd	r24, Z+11	; 0x0b
    3b0e:	94 85       	ldd	r25, Z+12	; 0x0c
    3b10:	90 93 68 03 	sts	0x0368, r25
    3b14:	80 93 67 03 	sts	0x0367, r24
			break;
    3b18:	08 95       	ret
		}
		case 3:
			{
				
				if (Current->type=='c')
    3b1a:	e0 91 67 03 	lds	r30, 0x0367
    3b1e:	f0 91 68 03 	lds	r31, 0x0368
    3b22:	84 81       	ldd	r24, Z+4	; 0x04
    3b24:	83 36       	cpi	r24, 0x63	; 99
    3b26:	21 f4       	brne	.+8      	; 0x3b30 <_Z4Movev+0x138>
				{
					stepmove(12);
    3b28:	8c e0       	ldi	r24, 0x0C	; 12
    3b2a:	90 e0       	ldi	r25, 0x00	; 0
    3b2c:	29 df       	rcall	.-430    	; 0x3980 <_Z8stepmovei>
    3b2e:	2d c0       	rjmp	.+90     	; 0x3b8a <_Z4Movev+0x192>
				}
				else if(Current->type=='v')
    3b30:	86 37       	cpi	r24, 0x76	; 118
    3b32:	81 f4       	brne	.+32     	; 0x3b54 <_Z4Movev+0x15c>
				{
					if(Current->S->type=='v') stepmove(24);
    3b34:	05 84       	ldd	r0, Z+13	; 0x0d
    3b36:	f6 85       	ldd	r31, Z+14	; 0x0e
    3b38:	e0 2d       	mov	r30, r0
    3b3a:	84 81       	ldd	r24, Z+4	; 0x04
    3b3c:	86 37       	cpi	r24, 0x76	; 118
    3b3e:	21 f4       	brne	.+8      	; 0x3b48 <_Z4Movev+0x150>
    3b40:	88 e1       	ldi	r24, 0x18	; 24
    3b42:	90 e0       	ldi	r25, 0x00	; 0
    3b44:	1d df       	rcall	.-454    	; 0x3980 <_Z8stepmovei>
    3b46:	21 c0       	rjmp	.+66     	; 0x3b8a <_Z4Movev+0x192>
					else if(Current->S->type=='c') stepmove(12);
    3b48:	83 36       	cpi	r24, 0x63	; 99
    3b4a:	f9 f4       	brne	.+62     	; 0x3b8a <_Z4Movev+0x192>
    3b4c:	8c e0       	ldi	r24, 0x0C	; 12
    3b4e:	90 e0       	ldi	r25, 0x00	; 0
    3b50:	17 df       	rcall	.-466    	; 0x3980 <_Z8stepmovei>
    3b52:	1b c0       	rjmp	.+54     	; 0x3b8a <_Z4Movev+0x192>
				}
				else if(Current->type=='h')
    3b54:	88 36       	cpi	r24, 0x68	; 104
    3b56:	21 f4       	brne	.+8      	; 0x3b60 <_Z4Movev+0x168>
				{
					stepmove(12);
    3b58:	8c e0       	ldi	r24, 0x0C	; 12
    3b5a:	90 e0       	ldi	r25, 0x00	; 0
    3b5c:	11 df       	rcall	.-478    	; 0x3980 <_Z8stepmovei>
    3b5e:	15 c0       	rjmp	.+42     	; 0x3b8a <_Z4Movev+0x192>
				}
				else if(Current->type=='j')
    3b60:	8a 36       	cpi	r24, 0x6A	; 106
    3b62:	71 f4       	brne	.+28     	; 0x3b80 <_Z4Movev+0x188>
				{
					if(Current->S->type=='h')
    3b64:	05 84       	ldd	r0, Z+13	; 0x0d
    3b66:	f6 85       	ldd	r31, Z+14	; 0x0e
    3b68:	e0 2d       	mov	r30, r0
    3b6a:	84 81       	ldd	r24, Z+4	; 0x04
    3b6c:	88 36       	cpi	r24, 0x68	; 104
    3b6e:	21 f4       	brne	.+8      	; 0x3b78 <_Z4Movev+0x180>
					{
						stepmove(12);
    3b70:	8c e0       	ldi	r24, 0x0C	; 12
    3b72:	90 e0       	ldi	r25, 0x00	; 0
    3b74:	05 df       	rcall	.-502    	; 0x3980 <_Z8stepmovei>
    3b76:	09 c0       	rjmp	.+18     	; 0x3b8a <_Z4Movev+0x192>
					}
					else stepmove(6);
    3b78:	86 e0       	ldi	r24, 0x06	; 6
    3b7a:	90 e0       	ldi	r25, 0x00	; 0
    3b7c:	01 df       	rcall	.-510    	; 0x3980 <_Z8stepmovei>
    3b7e:	05 c0       	rjmp	.+10     	; 0x3b8a <_Z4Movev+0x192>
				}
				else if(Current->type=='s')
    3b80:	83 37       	cpi	r24, 0x73	; 115
    3b82:	19 f4       	brne	.+6      	; 0x3b8a <_Z4Movev+0x192>
				{
					stepmove(6);
    3b84:	86 e0       	ldi	r24, 0x06	; 6
    3b86:	90 e0       	ldi	r25, 0x00	; 0
    3b88:	fb de       	rcall	.-522    	; 0x3980 <_Z8stepmovei>
				}
				Current=Current->S;
    3b8a:	e0 91 67 03 	lds	r30, 0x0367
    3b8e:	f0 91 68 03 	lds	r31, 0x0368
    3b92:	85 85       	ldd	r24, Z+13	; 0x0d
    3b94:	96 85       	ldd	r25, Z+14	; 0x0e
    3b96:	90 93 68 03 	sts	0x0368, r25
    3b9a:	80 93 67 03 	sts	0x0367, r24
				break;
    3b9e:	08 95       	ret
			}
		case 4:
			{
				if (Current->type=='c')
    3ba0:	e0 91 67 03 	lds	r30, 0x0367
    3ba4:	f0 91 68 03 	lds	r31, 0x0368
    3ba8:	84 81       	ldd	r24, Z+4	; 0x04
    3baa:	83 36       	cpi	r24, 0x63	; 99
    3bac:	21 f4       	brne	.+8      	; 0x3bb6 <_Z4Movev+0x1be>
				{
					stepmove(9);
    3bae:	89 e0       	ldi	r24, 0x09	; 9
    3bb0:	90 e0       	ldi	r25, 0x00	; 0
    3bb2:	e6 de       	rcall	.-564    	; 0x3980 <_Z8stepmovei>
    3bb4:	27 c0       	rjmp	.+78     	; 0x3c04 <_Z4Movev+0x20c>
				}
				else if(Current->type=='v')
    3bb6:	86 37       	cpi	r24, 0x76	; 118
    3bb8:	21 f4       	brne	.+8      	; 0x3bc2 <_Z4Movev+0x1ca>
				{
					stepmove(12);
    3bba:	8c e0       	ldi	r24, 0x0C	; 12
    3bbc:	90 e0       	ldi	r25, 0x00	; 0
    3bbe:	e0 de       	rcall	.-576    	; 0x3980 <_Z8stepmovei>
    3bc0:	21 c0       	rjmp	.+66     	; 0x3c04 <_Z4Movev+0x20c>
				}
				else if(Current->type=='h')
    3bc2:	88 36       	cpi	r24, 0x68	; 104
    3bc4:	21 f4       	brne	.+8      	; 0x3bce <_Z4Movev+0x1d6>
				{
					stepmove(9);
    3bc6:	89 e0       	ldi	r24, 0x09	; 9
    3bc8:	90 e0       	ldi	r25, 0x00	; 0
    3bca:	da de       	rcall	.-588    	; 0x3980 <_Z8stepmovei>
    3bcc:	1b c0       	rjmp	.+54     	; 0x3c04 <_Z4Movev+0x20c>
				}
				else if(Current->type=='j')
    3bce:	8a 36       	cpi	r24, 0x6A	; 106
    3bd0:	21 f4       	brne	.+8      	; 0x3bda <_Z4Movev+0x1e2>
				{
					stepmove(12);
    3bd2:	8c e0       	ldi	r24, 0x0C	; 12
    3bd4:	90 e0       	ldi	r25, 0x00	; 0
    3bd6:	d4 de       	rcall	.-600    	; 0x3980 <_Z8stepmovei>
    3bd8:	15 c0       	rjmp	.+42     	; 0x3c04 <_Z4Movev+0x20c>
				}
				else if(Current->type=='s')
    3bda:	83 37       	cpi	r24, 0x73	; 115
    3bdc:	71 f4       	brne	.+28     	; 0x3bfa <_Z4Movev+0x202>
				{
					if(Current->W->type=='S') stepmove(6);
    3bde:	07 84       	ldd	r0, Z+15	; 0x0f
    3be0:	f0 89       	ldd	r31, Z+16	; 0x10
    3be2:	e0 2d       	mov	r30, r0
    3be4:	84 81       	ldd	r24, Z+4	; 0x04
    3be6:	83 35       	cpi	r24, 0x53	; 83
    3be8:	21 f4       	brne	.+8      	; 0x3bf2 <_Z4Movev+0x1fa>
    3bea:	86 e0       	ldi	r24, 0x06	; 6
    3bec:	90 e0       	ldi	r25, 0x00	; 0
    3bee:	c8 de       	rcall	.-624    	; 0x3980 <_Z8stepmovei>
    3bf0:	09 c0       	rjmp	.+18     	; 0x3c04 <_Z4Movev+0x20c>
					else stepmove(12);
    3bf2:	8c e0       	ldi	r24, 0x0C	; 12
    3bf4:	90 e0       	ldi	r25, 0x00	; 0
    3bf6:	c4 de       	rcall	.-632    	; 0x3980 <_Z8stepmovei>
    3bf8:	05 c0       	rjmp	.+10     	; 0x3c04 <_Z4Movev+0x20c>
				}
				else if(Current->type=='S')
    3bfa:	83 35       	cpi	r24, 0x53	; 83
    3bfc:	19 f4       	brne	.+6      	; 0x3c04 <_Z4Movev+0x20c>
				{
					stepmove(6);
    3bfe:	86 e0       	ldi	r24, 0x06	; 6
    3c00:	90 e0       	ldi	r25, 0x00	; 0
    3c02:	be de       	rcall	.-644    	; 0x3980 <_Z8stepmovei>
				}
				Current=Current->W;
    3c04:	e0 91 67 03 	lds	r30, 0x0367
    3c08:	f0 91 68 03 	lds	r31, 0x0368
    3c0c:	87 85       	ldd	r24, Z+15	; 0x0f
    3c0e:	90 89       	ldd	r25, Z+16	; 0x10
    3c10:	90 93 68 03 	sts	0x0368, r25
    3c14:	80 93 67 03 	sts	0x0367, r24
    3c18:	08 95       	ret

00003c1a <_Z6TravelPi>:
}



void Travel(int direction[])
{
    3c1a:	0f 93       	push	r16
    3c1c:	1f 93       	push	r17
    3c1e:	cf 93       	push	r28
    3c20:	df 93       	push	r29
	
	
	for(int i=0;i<steps;i++)
    3c22:	20 91 61 03 	lds	r18, 0x0361
    3c26:	30 91 62 03 	lds	r19, 0x0362
    3c2a:	12 16       	cp	r1, r18
    3c2c:	13 06       	cpc	r1, r19
    3c2e:	54 f5       	brge	.+84     	; 0x3c84 <_Z6TravelPi+0x6a>
    3c30:	08 2f       	mov	r16, r24
    3c32:	19 2f       	mov	r17, r25
    3c34:	c0 e0       	ldi	r28, 0x00	; 0
    3c36:	d0 e0       	ldi	r29, 0x00	; 0
	{
		
		
		MakeDirection(direction[i]);
    3c38:	f8 01       	movw	r30, r16
    3c3a:	81 91       	ld	r24, Z+
    3c3c:	91 91       	ld	r25, Z+
    3c3e:	8f 01       	movw	r16, r30
    3c40:	62 db       	rcall	.-2364   	; 0x3306 <_Z13MakeDirectioni>
		Move();
    3c42:	da de       	rcall	.-588    	; 0x39f8 <_Z4Movev>
		lcd_print(2,5,Current->XPOS,3);
    3c44:	e0 91 67 03 	lds	r30, 0x0367
    3c48:	f0 91 68 03 	lds	r31, 0x0368
    3c4c:	45 81       	ldd	r20, Z+5	; 0x05
    3c4e:	56 81       	ldd	r21, Z+6	; 0x06
    3c50:	23 e0       	ldi	r18, 0x03	; 3
    3c52:	30 e0       	ldi	r19, 0x00	; 0
    3c54:	65 e0       	ldi	r22, 0x05	; 5
    3c56:	82 e0       	ldi	r24, 0x02	; 2
    3c58:	0e 94 70 13 	call	0x26e0	; 0x26e0 <_Z9lcd_printccji>
		lcd_print(2,9,Current->YPOS,3);
    3c5c:	e0 91 67 03 	lds	r30, 0x0367
    3c60:	f0 91 68 03 	lds	r31, 0x0368
    3c64:	47 81       	ldd	r20, Z+7	; 0x07
    3c66:	50 85       	ldd	r21, Z+8	; 0x08
    3c68:	23 e0       	ldi	r18, 0x03	; 3
    3c6a:	30 e0       	ldi	r19, 0x00	; 0
    3c6c:	69 e0       	ldi	r22, 0x09	; 9
    3c6e:	82 e0       	ldi	r24, 0x02	; 2
    3c70:	0e 94 70 13 	call	0x26e0	; 0x26e0 <_Z9lcd_printccji>

void Travel(int direction[])
{
	
	
	for(int i=0;i<steps;i++)
    3c74:	21 96       	adiw	r28, 0x01	; 1
    3c76:	80 91 61 03 	lds	r24, 0x0361
    3c7a:	90 91 62 03 	lds	r25, 0x0362
    3c7e:	c8 17       	cp	r28, r24
    3c80:	d9 07       	cpc	r29, r25
    3c82:	d4 f2       	brlt	.-76     	; 0x3c38 <_Z6TravelPi+0x1e>
		Move();
		lcd_print(2,5,Current->XPOS,3);
		lcd_print(2,9,Current->YPOS,3);
		
	}
}
    3c84:	df 91       	pop	r29
    3c86:	cf 91       	pop	r28
    3c88:	1f 91       	pop	r17
    3c8a:	0f 91       	pop	r16
    3c8c:	08 95       	ret

00003c8e <_Z4Gotohh>:

void Goto(unsigned char ,unsigned char );

void Goto(unsigned char x ,unsigned char y )
{
	final=&obj[x][y];
    3c8e:	24 e5       	ldi	r18, 0x54	; 84
    3c90:	31 e0       	ldi	r19, 0x01	; 1
    3c92:	48 2f       	mov	r20, r24
    3c94:	42 9f       	mul	r20, r18
    3c96:	c0 01       	movw	r24, r0
    3c98:	43 9f       	mul	r20, r19
    3c9a:	90 0d       	add	r25, r0
    3c9c:	11 24       	eor	r1, r1
    3c9e:	9c 01       	movw	r18, r24
    3ca0:	41 e1       	ldi	r20, 0x11	; 17
    3ca2:	64 9f       	mul	r22, r20
    3ca4:	20 0d       	add	r18, r0
    3ca6:	31 1d       	adc	r19, r1
    3ca8:	11 24       	eor	r1, r1
    3caa:	b9 01       	movw	r22, r18
    3cac:	64 58       	subi	r22, 0x84	; 132
    3cae:	7c 4f       	sbci	r23, 0xFC	; 252
    3cb0:	70 93 64 03 	sts	0x0364, r23
    3cb4:	60 93 63 03 	sts	0x0363, r22
	mapp(Current,final);
    3cb8:	80 91 67 03 	lds	r24, 0x0367
    3cbc:	90 91 68 03 	lds	r25, 0x0368
    3cc0:	0e 94 6c 12 	call	0x24d8	; 0x24d8 <_Z4mappP3mapS0_>
	Travel(direction);
    3cc4:	8b e9       	ldi	r24, 0x9B	; 155
    3cc6:	92 e0       	ldi	r25, 0x02	; 2
    3cc8:	a8 cf       	rjmp	.-176    	; 0x3c1a <_Z6TravelPi>
    3cca:	08 95       	ret

00003ccc <_Z6searchv>:
		
		//Left();
	}
}
void search()
{
    3ccc:	af 92       	push	r10
    3cce:	bf 92       	push	r11
    3cd0:	cf 92       	push	r12
    3cd2:	df 92       	push	r13
    3cd4:	ef 92       	push	r14
    3cd6:	ff 92       	push	r15
    3cd8:	0f 93       	push	r16
    3cda:	1f 93       	push	r17
    3cdc:	cf 93       	push	r28
    3cde:	df 93       	push	r29
	if (Current->YPOS==0)
    3ce0:	e0 91 67 03 	lds	r30, 0x0367
    3ce4:	f0 91 68 03 	lds	r31, 0x0368
    3ce8:	87 81       	ldd	r24, Z+7	; 0x07
    3cea:	90 85       	ldd	r25, Z+8	; 0x08
    3cec:	00 97       	sbiw	r24, 0x00	; 0
    3cee:	09 f0       	breq	.+2      	; 0x3cf2 <_Z6searchv+0x26>
    3cf0:	39 c1       	rjmp	.+626    	; 0x3f64 <_Z6searchv+0x298>
    3cf2:	0f 2e       	mov	r0, r31
    3cf4:	f9 e0       	ldi	r31, 0x09	; 9
    3cf6:	bf 2e       	mov	r11, r31
    3cf8:	f0 2d       	mov	r31, r0
	{
		for (int i=1;i<=3;i++)
		{
			if (obj[5][0].flag==0 || obj[3][0].flag==0 || obj[1][0].flag==0)
    3cfa:	c2 e2       	ldi	r28, 0x22	; 34
    3cfc:	da e0       	ldi	r29, 0x0A	; 10
			{
				Goto(7-2*i,0);
    3cfe:	0f 2e       	mov	r0, r31
    3d00:	fe e0       	ldi	r31, 0x0E	; 14
    3d02:	af 2e       	mov	r10, r31
    3d04:	f0 2d       	mov	r31, r0
						Travel(direction);
						break;
					}
					else
					{
						Current->flag=1;
    3d06:	cc 24       	eor	r12, r12
    3d08:	c3 94       	inc	r12
    3d0a:	d1 2c       	mov	r13, r1
{
	if (Current->YPOS==0)
	{
		for (int i=1;i<=3;i++)
		{
			if (obj[5][0].flag==0 || obj[3][0].flag==0 || obj[1][0].flag==0)
    3d0c:	0a e7       	ldi	r16, 0x7A	; 122
    3d0e:	17 e0       	ldi	r17, 0x07	; 7
    3d10:	0f 2e       	mov	r0, r31
    3d12:	f2 ed       	ldi	r31, 0xD2	; 210
    3d14:	ef 2e       	mov	r14, r31
    3d16:	f4 e0       	ldi	r31, 0x04	; 4
    3d18:	ff 2e       	mov	r15, r31
    3d1a:	f0 2d       	mov	r31, r0
    3d1c:	28 81       	ld	r18, Y
    3d1e:	39 81       	ldd	r19, Y+1	; 0x01
    3d20:	23 2b       	or	r18, r19
    3d22:	59 f0       	breq	.+22     	; 0x3d3a <_Z6searchv+0x6e>
    3d24:	f8 01       	movw	r30, r16
    3d26:	20 81       	ld	r18, Z
    3d28:	31 81       	ldd	r19, Z+1	; 0x01
    3d2a:	23 2b       	or	r18, r19
    3d2c:	31 f0       	breq	.+12     	; 0x3d3a <_Z6searchv+0x6e>
    3d2e:	f7 01       	movw	r30, r14
    3d30:	80 81       	ld	r24, Z
    3d32:	91 81       	ldd	r25, Z+1	; 0x01
    3d34:	89 2b       	or	r24, r25
    3d36:	09 f0       	breq	.+2      	; 0x3d3a <_Z6searchv+0x6e>
    3d38:	89 c0       	rjmp	.+274    	; 0x3e4c <_Z6searchv+0x180>
			{
				Goto(7-2*i,0);
    3d3a:	60 e0       	ldi	r22, 0x00	; 0
    3d3c:	8a 2d       	mov	r24, r10
    3d3e:	8b 19       	sub	r24, r11
    3d40:	a6 df       	rcall	.-180    	; 0x3c8e <_Z4Gotohh>
				if (Current->flag==0)
    3d42:	e0 91 67 03 	lds	r30, 0x0367
    3d46:	f0 91 68 03 	lds	r31, 0x0368
    3d4a:	22 81       	ldd	r18, Z+2	; 0x02
    3d4c:	33 81       	ldd	r19, Z+3	; 0x03
    3d4e:	23 2b       	or	r18, r19
    3d50:	09 f0       	breq	.+2      	; 0x3d54 <_Z6searchv+0x88>
    3d52:	02 c1       	rjmp	.+516    	; 0x3f58 <_Z6searchv+0x28c>
				{
					MakeDirection(3);
    3d54:	83 e0       	ldi	r24, 0x03	; 3
    3d56:	90 e0       	ldi	r25, 0x00	; 0
    3d58:	d6 da       	rcall	.-2644   	; 0x3306 <_Z13MakeDirectioni>
    3d5a:	ff ef       	ldi	r31, 0xFF	; 255
    3d5c:	2f e7       	ldi	r18, 0x7F	; 127
    3d5e:	86 e1       	ldi	r24, 0x16	; 22
    3d60:	f1 50       	subi	r31, 0x01	; 1
    3d62:	20 40       	sbci	r18, 0x00	; 0
    3d64:	80 40       	sbci	r24, 0x00	; 0
    3d66:	e1 f7       	brne	.-8      	; 0x3d60 <_Z6searchv+0x94>
    3d68:	00 c0       	rjmp	.+0      	; 0x3d6a <_Z6searchv+0x9e>
    3d6a:	00 00       	nop
					_delay_ms(500);
					color=check_for_box();
    3d6c:	c5 db       	rcall	.-2166   	; 0x34f8 <_Z13check_for_boxv>
    3d6e:	90 93 74 02 	sts	0x0274, r25
    3d72:	80 93 73 02 	sts	0x0273, r24
					//back_mm(30);
					if (color>0)
    3d76:	18 16       	cp	r1, r24
    3d78:	19 06       	cpc	r1, r25
    3d7a:	0c f0       	brlt	.+2      	; 0x3d7e <_Z6searchv+0xb2>
    3d7c:	52 c0       	rjmp	.+164    	; 0x3e22 <_Z6searchv+0x156>
					{
						switch(color)
    3d7e:	8b 30       	cpi	r24, 0x0B	; 11
    3d80:	91 05       	cpc	r25, r1
    3d82:	d1 f0       	breq	.+52     	; 0x3db8 <_Z6searchv+0xec>
    3d84:	8c 30       	cpi	r24, 0x0C	; 12
    3d86:	91 05       	cpc	r25, r1
    3d88:	59 f1       	breq	.+86     	; 0x3de0 <_Z6searchv+0x114>
    3d8a:	0a 97       	sbiw	r24, 0x0a	; 10
    3d8c:	09 f0       	breq	.+2      	; 0x3d90 <_Z6searchv+0xc4>
    3d8e:	3b c0       	rjmp	.+118    	; 0x3e06 <_Z6searchv+0x13a>
						{
							
							case 10:
							deposit_point(RED);
    3d90:	89 e0       	ldi	r24, 0x09	; 9
    3d92:	92 e0       	ldi	r25, 0x02	; 2
    3d94:	0e 94 3b 16 	call	0x2c76	; 0x2c76 <_Z13deposit_pointPi>
							mapp(Current,final);
    3d98:	60 91 63 03 	lds	r22, 0x0363
    3d9c:	70 91 64 03 	lds	r23, 0x0364
    3da0:	80 91 67 03 	lds	r24, 0x0367
    3da4:	90 91 68 03 	lds	r25, 0x0368
    3da8:	0e 94 6c 12 	call	0x24d8	; 0x24d8 <_Z4mappP3mapS0_>
							Travel(direction);
    3dac:	8b e9       	ldi	r24, 0x9B	; 155
    3dae:	92 e0       	ldi	r25, 0x02	; 2
    3db0:	34 df       	rcall	.-408    	; 0x3c1a <_Z6TravelPi>
							dropit();
    3db2:	53 dd       	rcall	.-1370   	; 0x385a <_Z6dropitv>
							nearest_row_select();
    3db4:	51 d9       	rcall	.-3422   	; 0x3058 <_Z18nearest_row_selectv>
							break;
    3db6:	27 c0       	rjmp	.+78     	; 0x3e06 <_Z6searchv+0x13a>
							case 11:
							deposit_point(GREEN);
    3db8:	8f e0       	ldi	r24, 0x0F	; 15
    3dba:	92 e0       	ldi	r25, 0x02	; 2
    3dbc:	0e 94 3b 16 	call	0x2c76	; 0x2c76 <_Z13deposit_pointPi>
							mapp(Current,final);
    3dc0:	60 91 63 03 	lds	r22, 0x0363
    3dc4:	70 91 64 03 	lds	r23, 0x0364
    3dc8:	80 91 67 03 	lds	r24, 0x0367
    3dcc:	90 91 68 03 	lds	r25, 0x0368
    3dd0:	0e 94 6c 12 	call	0x24d8	; 0x24d8 <_Z4mappP3mapS0_>
							Travel(direction);
    3dd4:	8b e9       	ldi	r24, 0x9B	; 155
    3dd6:	92 e0       	ldi	r25, 0x02	; 2
    3dd8:	20 df       	rcall	.-448    	; 0x3c1a <_Z6TravelPi>
							dropit();
    3dda:	3f dd       	rcall	.-1410   	; 0x385a <_Z6dropitv>
							nearest_row_select();
    3ddc:	3d d9       	rcall	.-3462   	; 0x3058 <_Z18nearest_row_selectv>
							break;
    3dde:	13 c0       	rjmp	.+38     	; 0x3e06 <_Z6searchv+0x13a>
							case 12:
							deposit_point(BLUE);
    3de0:	83 e0       	ldi	r24, 0x03	; 3
    3de2:	92 e0       	ldi	r25, 0x02	; 2
    3de4:	0e 94 3b 16 	call	0x2c76	; 0x2c76 <_Z13deposit_pointPi>
							mapp(Current,final);
    3de8:	60 91 63 03 	lds	r22, 0x0363
    3dec:	70 91 64 03 	lds	r23, 0x0364
    3df0:	80 91 67 03 	lds	r24, 0x0367
    3df4:	90 91 68 03 	lds	r25, 0x0368
    3df8:	0e 94 6c 12 	call	0x24d8	; 0x24d8 <_Z4mappP3mapS0_>
							Travel(direction);
    3dfc:	8b e9       	ldi	r24, 0x9B	; 155
    3dfe:	92 e0       	ldi	r25, 0x02	; 2
    3e00:	0c df       	rcall	.-488    	; 0x3c1a <_Z6TravelPi>
							dropit();
    3e02:	2b dd       	rcall	.-1450   	; 0x385a <_Z6dropitv>
							nearest_row_select();
    3e04:	29 d9       	rcall	.-3502   	; 0x3058 <_Z18nearest_row_selectv>
							break;
						}
						mapp(Current,final);
    3e06:	60 91 63 03 	lds	r22, 0x0363
    3e0a:	70 91 64 03 	lds	r23, 0x0364
    3e0e:	80 91 67 03 	lds	r24, 0x0367
    3e12:	90 91 68 03 	lds	r25, 0x0368
    3e16:	0e 94 6c 12 	call	0x24d8	; 0x24d8 <_Z4mappP3mapS0_>
						Travel(direction);
    3e1a:	8b e9       	ldi	r24, 0x9B	; 155
    3e1c:	92 e0       	ldi	r25, 0x02	; 2
    3e1e:	fd de       	rcall	.-518    	; 0x3c1a <_Z6TravelPi>
						break;
    3e20:	e3 c1       	rjmp	.+966    	; 0x41e8 <_Z6searchv+0x51c>
					}
					else
					{
						Current->flag=1;
    3e22:	e0 91 67 03 	lds	r30, 0x0367
    3e26:	f0 91 68 03 	lds	r31, 0x0368
    3e2a:	d3 82       	std	Z+3, r13	; 0x03
    3e2c:	c2 82       	std	Z+2, r12	; 0x02
						if (color==-1)
    3e2e:	01 96       	adiw	r24, 0x01	; 1
    3e30:	09 f0       	breq	.+2      	; 0x3e34 <_Z6searchv+0x168>
    3e32:	92 c0       	rjmp	.+292    	; 0x3f58 <_Z6searchv+0x28c>
						{
							buzzer_on();
    3e34:	7a d9       	rcall	.-3340   	; 0x312a <_Z9buzzer_onv>
    3e36:	ff ef       	ldi	r31, 0xFF	; 255
    3e38:	2f ef       	ldi	r18, 0xFF	; 255
    3e3a:	8c e2       	ldi	r24, 0x2C	; 44
    3e3c:	f1 50       	subi	r31, 0x01	; 1
    3e3e:	20 40       	sbci	r18, 0x00	; 0
    3e40:	80 40       	sbci	r24, 0x00	; 0
    3e42:	e1 f7       	brne	.-8      	; 0x3e3c <_Z6searchv+0x170>
    3e44:	00 c0       	rjmp	.+0      	; 0x3e46 <_Z6searchv+0x17a>
    3e46:	00 00       	nop
							_delay_ms(1000);
							buzzer_off();
    3e48:	74 d9       	rcall	.-3352   	; 0x3132 <_Z10buzzer_offv>
    3e4a:	86 c0       	rjmp	.+268    	; 0x3f58 <_Z6searchv+0x28c>
					
				}
			}
			else
			{
				Goto(7+2*i,0);
    3e4c:	60 e0       	ldi	r22, 0x00	; 0
    3e4e:	8b 2d       	mov	r24, r11
    3e50:	1e df       	rcall	.-452    	; 0x3c8e <_Z4Gotohh>
				if (Current->flag==0)
    3e52:	e0 91 67 03 	lds	r30, 0x0367
    3e56:	f0 91 68 03 	lds	r31, 0x0368
    3e5a:	82 81       	ldd	r24, Z+2	; 0x02
    3e5c:	93 81       	ldd	r25, Z+3	; 0x03
    3e5e:	89 2b       	or	r24, r25
    3e60:	09 f0       	breq	.+2      	; 0x3e64 <_Z6searchv+0x198>
    3e62:	7a c0       	rjmp	.+244    	; 0x3f58 <_Z6searchv+0x28c>
				{
					MakeDirection(3);
    3e64:	83 e0       	ldi	r24, 0x03	; 3
    3e66:	90 e0       	ldi	r25, 0x00	; 0
    3e68:	4e da       	rcall	.-2916   	; 0x3306 <_Z13MakeDirectioni>
    3e6a:	9f ef       	ldi	r25, 0xFF	; 255
    3e6c:	ef e7       	ldi	r30, 0x7F	; 127
    3e6e:	f6 e1       	ldi	r31, 0x16	; 22
    3e70:	91 50       	subi	r25, 0x01	; 1
    3e72:	e0 40       	sbci	r30, 0x00	; 0
    3e74:	f0 40       	sbci	r31, 0x00	; 0
    3e76:	e1 f7       	brne	.-8      	; 0x3e70 <_Z6searchv+0x1a4>
    3e78:	00 c0       	rjmp	.+0      	; 0x3e7a <_Z6searchv+0x1ae>
    3e7a:	00 00       	nop
					_delay_ms(500);
					color=check_for_box();
    3e7c:	3d db       	rcall	.-2438   	; 0x34f8 <_Z13check_for_boxv>
    3e7e:	90 93 74 02 	sts	0x0274, r25
    3e82:	80 93 73 02 	sts	0x0273, r24
					//back_mm(30);
					if (color>0)
    3e86:	18 16       	cp	r1, r24
    3e88:	19 06       	cpc	r1, r25
    3e8a:	0c f0       	brlt	.+2      	; 0x3e8e <_Z6searchv+0x1c2>
    3e8c:	52 c0       	rjmp	.+164    	; 0x3f32 <_Z6searchv+0x266>
					{
						switch(color)
    3e8e:	8b 30       	cpi	r24, 0x0B	; 11
    3e90:	91 05       	cpc	r25, r1
    3e92:	d1 f0       	breq	.+52     	; 0x3ec8 <_Z6searchv+0x1fc>
    3e94:	8c 30       	cpi	r24, 0x0C	; 12
    3e96:	91 05       	cpc	r25, r1
    3e98:	59 f1       	breq	.+86     	; 0x3ef0 <_Z6searchv+0x224>
    3e9a:	0a 97       	sbiw	r24, 0x0a	; 10
    3e9c:	09 f0       	breq	.+2      	; 0x3ea0 <_Z6searchv+0x1d4>
    3e9e:	3b c0       	rjmp	.+118    	; 0x3f16 <_Z6searchv+0x24a>
						{
							case 10:
							deposit_point(RED);
    3ea0:	89 e0       	ldi	r24, 0x09	; 9
    3ea2:	92 e0       	ldi	r25, 0x02	; 2
    3ea4:	0e 94 3b 16 	call	0x2c76	; 0x2c76 <_Z13deposit_pointPi>
							mapp(Current,final);
    3ea8:	60 91 63 03 	lds	r22, 0x0363
    3eac:	70 91 64 03 	lds	r23, 0x0364
    3eb0:	80 91 67 03 	lds	r24, 0x0367
    3eb4:	90 91 68 03 	lds	r25, 0x0368
    3eb8:	0e 94 6c 12 	call	0x24d8	; 0x24d8 <_Z4mappP3mapS0_>
							Travel(direction);
    3ebc:	8b e9       	ldi	r24, 0x9B	; 155
    3ebe:	92 e0       	ldi	r25, 0x02	; 2
    3ec0:	ac de       	rcall	.-680    	; 0x3c1a <_Z6TravelPi>
							dropit();
    3ec2:	cb dc       	rcall	.-1642   	; 0x385a <_Z6dropitv>
							nearest_row_select();
    3ec4:	c9 d8       	rcall	.-3694   	; 0x3058 <_Z18nearest_row_selectv>
							break;
    3ec6:	27 c0       	rjmp	.+78     	; 0x3f16 <_Z6searchv+0x24a>
							case 11:
							deposit_point(GREEN);
    3ec8:	8f e0       	ldi	r24, 0x0F	; 15
    3eca:	92 e0       	ldi	r25, 0x02	; 2
    3ecc:	0e 94 3b 16 	call	0x2c76	; 0x2c76 <_Z13deposit_pointPi>
							mapp(Current,final);
    3ed0:	60 91 63 03 	lds	r22, 0x0363
    3ed4:	70 91 64 03 	lds	r23, 0x0364
    3ed8:	80 91 67 03 	lds	r24, 0x0367
    3edc:	90 91 68 03 	lds	r25, 0x0368
    3ee0:	0e 94 6c 12 	call	0x24d8	; 0x24d8 <_Z4mappP3mapS0_>
							Travel(direction);
    3ee4:	8b e9       	ldi	r24, 0x9B	; 155
    3ee6:	92 e0       	ldi	r25, 0x02	; 2
    3ee8:	98 de       	rcall	.-720    	; 0x3c1a <_Z6TravelPi>
							dropit();
    3eea:	b7 dc       	rcall	.-1682   	; 0x385a <_Z6dropitv>
							nearest_row_select();
    3eec:	b5 d8       	rcall	.-3734   	; 0x3058 <_Z18nearest_row_selectv>
							break;
    3eee:	13 c0       	rjmp	.+38     	; 0x3f16 <_Z6searchv+0x24a>
							case 12:
							deposit_point(BLUE);
    3ef0:	83 e0       	ldi	r24, 0x03	; 3
    3ef2:	92 e0       	ldi	r25, 0x02	; 2
    3ef4:	0e 94 3b 16 	call	0x2c76	; 0x2c76 <_Z13deposit_pointPi>
							mapp(Current,final);
    3ef8:	60 91 63 03 	lds	r22, 0x0363
    3efc:	70 91 64 03 	lds	r23, 0x0364
    3f00:	80 91 67 03 	lds	r24, 0x0367
    3f04:	90 91 68 03 	lds	r25, 0x0368
    3f08:	0e 94 6c 12 	call	0x24d8	; 0x24d8 <_Z4mappP3mapS0_>
							Travel(direction);
    3f0c:	8b e9       	ldi	r24, 0x9B	; 155
    3f0e:	92 e0       	ldi	r25, 0x02	; 2
    3f10:	84 de       	rcall	.-760    	; 0x3c1a <_Z6TravelPi>
							dropit();
    3f12:	a3 dc       	rcall	.-1722   	; 0x385a <_Z6dropitv>
							nearest_row_select();
    3f14:	a1 d8       	rcall	.-3774   	; 0x3058 <_Z18nearest_row_selectv>
							break;
						}
						mapp(Current,final);
    3f16:	60 91 63 03 	lds	r22, 0x0363
    3f1a:	70 91 64 03 	lds	r23, 0x0364
    3f1e:	80 91 67 03 	lds	r24, 0x0367
    3f22:	90 91 68 03 	lds	r25, 0x0368
    3f26:	0e 94 6c 12 	call	0x24d8	; 0x24d8 <_Z4mappP3mapS0_>
						Travel(direction);
    3f2a:	8b e9       	ldi	r24, 0x9B	; 155
    3f2c:	92 e0       	ldi	r25, 0x02	; 2
    3f2e:	75 de       	rcall	.-790    	; 0x3c1a <_Z6TravelPi>
						break;
    3f30:	5b c1       	rjmp	.+694    	; 0x41e8 <_Z6searchv+0x51c>
					}
					else
					{
						Current->flag=1;
    3f32:	e0 91 67 03 	lds	r30, 0x0367
    3f36:	f0 91 68 03 	lds	r31, 0x0368
    3f3a:	d3 82       	std	Z+3, r13	; 0x03
    3f3c:	c2 82       	std	Z+2, r12	; 0x02
						if (color==-1)
    3f3e:	01 96       	adiw	r24, 0x01	; 1
    3f40:	59 f4       	brne	.+22     	; 0x3f58 <_Z6searchv+0x28c>
						{
							buzzer_on();
    3f42:	f3 d8       	rcall	.-3610   	; 0x312a <_Z9buzzer_onv>
    3f44:	8f ef       	ldi	r24, 0xFF	; 255
    3f46:	9f ef       	ldi	r25, 0xFF	; 255
    3f48:	ec e2       	ldi	r30, 0x2C	; 44
    3f4a:	81 50       	subi	r24, 0x01	; 1
    3f4c:	90 40       	sbci	r25, 0x00	; 0
    3f4e:	e0 40       	sbci	r30, 0x00	; 0
    3f50:	e1 f7       	brne	.-8      	; 0x3f4a <_Z6searchv+0x27e>
    3f52:	00 c0       	rjmp	.+0      	; 0x3f54 <_Z6searchv+0x288>
    3f54:	00 00       	nop
							_delay_ms(1000);
							buzzer_off();
    3f56:	ed d8       	rcall	.-3622   	; 0x3132 <_Z10buzzer_offv>
    3f58:	b3 94       	inc	r11
    3f5a:	b3 94       	inc	r11
}
void search()
{
	if (Current->YPOS==0)
	{
		for (int i=1;i<=3;i++)
    3f5c:	ff e0       	ldi	r31, 0x0F	; 15
    3f5e:	bf 12       	cpse	r11, r31
    3f60:	dd ce       	rjmp	.-582    	; 0x3d1c <_Z6searchv+0x50>
    3f62:	42 c1       	rjmp	.+644    	; 0x41e8 <_Z6searchv+0x51c>
	
	
	
	
	
	else if (Current->YPOS==8)
    3f64:	08 97       	sbiw	r24, 0x08	; 8
    3f66:	09 f0       	breq	.+2      	; 0x3f6a <_Z6searchv+0x29e>
    3f68:	3f c1       	rjmp	.+638    	; 0x41e8 <_Z6searchv+0x51c>
    3f6a:	0f 2e       	mov	r0, r31
    3f6c:	f9 e0       	ldi	r31, 0x09	; 9
    3f6e:	df 2e       	mov	r13, r31
    3f70:	f0 2d       	mov	r31, r0
	{
		for (int i=1;i<=3;i++)
		{
			if (obj[5][8].flag==0 || obj[3][8].flag==0 || obj[1][8].flag==0)
    3f72:	ca ea       	ldi	r28, 0xAA	; 170
    3f74:	da e0       	ldi	r29, 0x0A	; 10
			{
				Goto(7-2*i,8);
    3f76:	0f 2e       	mov	r0, r31
    3f78:	fe e0       	ldi	r31, 0x0E	; 14
    3f7a:	cf 2e       	mov	r12, r31
    3f7c:	f0 2d       	mov	r31, r0
	
	else if (Current->YPOS==8)
	{
		for (int i=1;i<=3;i++)
		{
			if (obj[5][8].flag==0 || obj[3][8].flag==0 || obj[1][8].flag==0)
    3f7e:	02 e0       	ldi	r16, 0x02	; 2
    3f80:	18 e0       	ldi	r17, 0x08	; 8
    3f82:	0f 2e       	mov	r0, r31
    3f84:	fa e5       	ldi	r31, 0x5A	; 90
    3f86:	ef 2e       	mov	r14, r31
    3f88:	f5 e0       	ldi	r31, 0x05	; 5
    3f8a:	ff 2e       	mov	r15, r31
    3f8c:	f0 2d       	mov	r31, r0
    3f8e:	28 81       	ld	r18, Y
    3f90:	39 81       	ldd	r19, Y+1	; 0x01
    3f92:	23 2b       	or	r18, r19
    3f94:	59 f0       	breq	.+22     	; 0x3fac <_Z6searchv+0x2e0>
    3f96:	f8 01       	movw	r30, r16
    3f98:	20 81       	ld	r18, Z
    3f9a:	31 81       	ldd	r19, Z+1	; 0x01
    3f9c:	23 2b       	or	r18, r19
    3f9e:	31 f0       	breq	.+12     	; 0x3fac <_Z6searchv+0x2e0>
    3fa0:	f7 01       	movw	r30, r14
    3fa2:	80 81       	ld	r24, Z
    3fa4:	91 81       	ldd	r25, Z+1	; 0x01
    3fa6:	89 2b       	or	r24, r25
    3fa8:	09 f0       	breq	.+2      	; 0x3fac <_Z6searchv+0x2e0>
    3faa:	8c c0       	rjmp	.+280    	; 0x40c4 <_Z6searchv+0x3f8>
			{
				Goto(7-2*i,8);
    3fac:	68 e0       	ldi	r22, 0x08	; 8
    3fae:	8c 2d       	mov	r24, r12
    3fb0:	8d 19       	sub	r24, r13
    3fb2:	6d de       	rcall	.-806    	; 0x3c8e <_Z4Gotohh>
				if (Current->flag==0)
    3fb4:	e0 91 67 03 	lds	r30, 0x0367
    3fb8:	f0 91 68 03 	lds	r31, 0x0368
    3fbc:	22 81       	ldd	r18, Z+2	; 0x02
    3fbe:	33 81       	ldd	r19, Z+3	; 0x03
    3fc0:	23 2b       	or	r18, r19
    3fc2:	09 f0       	breq	.+2      	; 0x3fc6 <_Z6searchv+0x2fa>
    3fc4:	0c c1       	rjmp	.+536    	; 0x41de <_Z6searchv+0x512>
				{
					MakeDirection(1);
    3fc6:	81 e0       	ldi	r24, 0x01	; 1
    3fc8:	90 e0       	ldi	r25, 0x00	; 0
    3fca:	9d d9       	rcall	.-3270   	; 0x3306 <_Z13MakeDirectioni>
    3fcc:	ff ef       	ldi	r31, 0xFF	; 255
    3fce:	2f e7       	ldi	r18, 0x7F	; 127
    3fd0:	86 e1       	ldi	r24, 0x16	; 22
    3fd2:	f1 50       	subi	r31, 0x01	; 1
    3fd4:	20 40       	sbci	r18, 0x00	; 0
    3fd6:	80 40       	sbci	r24, 0x00	; 0
    3fd8:	e1 f7       	brne	.-8      	; 0x3fd2 <_Z6searchv+0x306>
    3fda:	00 c0       	rjmp	.+0      	; 0x3fdc <_Z6searchv+0x310>
    3fdc:	00 00       	nop
					_delay_ms(500);
					color=check_for_box();
    3fde:	8c da       	rcall	.-2792   	; 0x34f8 <_Z13check_for_boxv>
    3fe0:	90 93 74 02 	sts	0x0274, r25
    3fe4:	80 93 73 02 	sts	0x0273, r24
					//back_mm(20);
					if (color>0)
    3fe8:	18 16       	cp	r1, r24
    3fea:	19 06       	cpc	r1, r25
    3fec:	0c f0       	brlt	.+2      	; 0x3ff0 <_Z6searchv+0x324>
    3fee:	53 c0       	rjmp	.+166    	; 0x4096 <_Z6searchv+0x3ca>
					{
						switch(color)
    3ff0:	8b 30       	cpi	r24, 0x0B	; 11
    3ff2:	91 05       	cpc	r25, r1
    3ff4:	d1 f0       	breq	.+52     	; 0x402a <_Z6searchv+0x35e>
    3ff6:	8c 30       	cpi	r24, 0x0C	; 12
    3ff8:	91 05       	cpc	r25, r1
    3ffa:	59 f1       	breq	.+86     	; 0x4052 <_Z6searchv+0x386>
    3ffc:	0a 97       	sbiw	r24, 0x0a	; 10
    3ffe:	09 f0       	breq	.+2      	; 0x4002 <_Z6searchv+0x336>
    4000:	3c c0       	rjmp	.+120    	; 0x407a <_Z6searchv+0x3ae>
						{
							
							case 10:
							deposit_point(RED);
    4002:	89 e0       	ldi	r24, 0x09	; 9
    4004:	92 e0       	ldi	r25, 0x02	; 2
    4006:	0e 94 3b 16 	call	0x2c76	; 0x2c76 <_Z13deposit_pointPi>
							mapp(Current,final);
    400a:	60 91 63 03 	lds	r22, 0x0363
    400e:	70 91 64 03 	lds	r23, 0x0364
    4012:	80 91 67 03 	lds	r24, 0x0367
    4016:	90 91 68 03 	lds	r25, 0x0368
    401a:	0e 94 6c 12 	call	0x24d8	; 0x24d8 <_Z4mappP3mapS0_>
							Travel(direction);
    401e:	8b e9       	ldi	r24, 0x9B	; 155
    4020:	92 e0       	ldi	r25, 0x02	; 2
    4022:	fb dd       	rcall	.-1034   	; 0x3c1a <_Z6TravelPi>
							dropit();
    4024:	1a dc       	rcall	.-1996   	; 0x385a <_Z6dropitv>
							nearest_row_select();
    4026:	18 d8       	rcall	.-4048   	; 0x3058 <_Z18nearest_row_selectv>
							break;
    4028:	28 c0       	rjmp	.+80     	; 0x407a <_Z6searchv+0x3ae>
							case 11:
							deposit_point(GREEN);
    402a:	8f e0       	ldi	r24, 0x0F	; 15
    402c:	92 e0       	ldi	r25, 0x02	; 2
    402e:	0e 94 3b 16 	call	0x2c76	; 0x2c76 <_Z13deposit_pointPi>
							mapp(Current,final);
    4032:	60 91 63 03 	lds	r22, 0x0363
    4036:	70 91 64 03 	lds	r23, 0x0364
    403a:	80 91 67 03 	lds	r24, 0x0367
    403e:	90 91 68 03 	lds	r25, 0x0368
    4042:	0e 94 6c 12 	call	0x24d8	; 0x24d8 <_Z4mappP3mapS0_>
							Travel(direction);
    4046:	8b e9       	ldi	r24, 0x9B	; 155
    4048:	92 e0       	ldi	r25, 0x02	; 2
    404a:	e7 dd       	rcall	.-1074   	; 0x3c1a <_Z6TravelPi>
							dropit();
    404c:	06 dc       	rcall	.-2036   	; 0x385a <_Z6dropitv>
							nearest_row_select();
    404e:	04 d8       	rcall	.-4088   	; 0x3058 <_Z18nearest_row_selectv>
							break;
    4050:	14 c0       	rjmp	.+40     	; 0x407a <_Z6searchv+0x3ae>
							case 12:
							deposit_point(BLUE);
    4052:	83 e0       	ldi	r24, 0x03	; 3
    4054:	92 e0       	ldi	r25, 0x02	; 2
    4056:	0e 94 3b 16 	call	0x2c76	; 0x2c76 <_Z13deposit_pointPi>
							mapp(Current,final);
    405a:	60 91 63 03 	lds	r22, 0x0363
    405e:	70 91 64 03 	lds	r23, 0x0364
    4062:	80 91 67 03 	lds	r24, 0x0367
    4066:	90 91 68 03 	lds	r25, 0x0368
    406a:	0e 94 6c 12 	call	0x24d8	; 0x24d8 <_Z4mappP3mapS0_>
							Travel(direction);
    406e:	8b e9       	ldi	r24, 0x9B	; 155
    4070:	92 e0       	ldi	r25, 0x02	; 2
    4072:	d3 dd       	rcall	.-1114   	; 0x3c1a <_Z6TravelPi>
							dropit();
    4074:	f2 db       	rcall	.-2076   	; 0x385a <_Z6dropitv>
							nearest_row_select();
    4076:	0e 94 2c 18 	call	0x3058	; 0x3058 <_Z18nearest_row_selectv>
							break;
						}
						mapp(Current,final);
    407a:	60 91 63 03 	lds	r22, 0x0363
    407e:	70 91 64 03 	lds	r23, 0x0364
    4082:	80 91 67 03 	lds	r24, 0x0367
    4086:	90 91 68 03 	lds	r25, 0x0368
    408a:	0e 94 6c 12 	call	0x24d8	; 0x24d8 <_Z4mappP3mapS0_>
						Travel(direction);
    408e:	8b e9       	ldi	r24, 0x9B	; 155
    4090:	92 e0       	ldi	r25, 0x02	; 2
    4092:	c3 dd       	rcall	.-1146   	; 0x3c1a <_Z6TravelPi>
						break;
    4094:	a9 c0       	rjmp	.+338    	; 0x41e8 <_Z6searchv+0x51c>
					}
					else
					{
						Current->flag=1;
    4096:	e0 91 67 03 	lds	r30, 0x0367
    409a:	f0 91 68 03 	lds	r31, 0x0368
    409e:	21 e0       	ldi	r18, 0x01	; 1
    40a0:	30 e0       	ldi	r19, 0x00	; 0
    40a2:	33 83       	std	Z+3, r19	; 0x03
    40a4:	22 83       	std	Z+2, r18	; 0x02
						if (color==-1)
    40a6:	01 96       	adiw	r24, 0x01	; 1
    40a8:	09 f0       	breq	.+2      	; 0x40ac <_Z6searchv+0x3e0>
    40aa:	99 c0       	rjmp	.+306    	; 0x41de <_Z6searchv+0x512>
						{
							buzzer_on();
    40ac:	3e d8       	rcall	.-3972   	; 0x312a <_Z9buzzer_onv>
    40ae:	ff ef       	ldi	r31, 0xFF	; 255
    40b0:	2f ef       	ldi	r18, 0xFF	; 255
    40b2:	8c e2       	ldi	r24, 0x2C	; 44
    40b4:	f1 50       	subi	r31, 0x01	; 1
    40b6:	20 40       	sbci	r18, 0x00	; 0
    40b8:	80 40       	sbci	r24, 0x00	; 0
    40ba:	e1 f7       	brne	.-8      	; 0x40b4 <_Z6searchv+0x3e8>
    40bc:	00 c0       	rjmp	.+0      	; 0x40be <_Z6searchv+0x3f2>
    40be:	00 00       	nop
							_delay_ms(1000);
							buzzer_off();
    40c0:	38 d8       	rcall	.-3984   	; 0x3132 <_Z10buzzer_offv>
    40c2:	8d c0       	rjmp	.+282    	; 0x41de <_Z6searchv+0x512>

				}
			}
			else
			{
				Goto(7+2*i,8);
    40c4:	68 e0       	ldi	r22, 0x08	; 8
    40c6:	8d 2d       	mov	r24, r13
    40c8:	e2 dd       	rcall	.-1084   	; 0x3c8e <_Z4Gotohh>
				if (Current->flag==0)
    40ca:	e0 91 67 03 	lds	r30, 0x0367
    40ce:	f0 91 68 03 	lds	r31, 0x0368
    40d2:	82 81       	ldd	r24, Z+2	; 0x02
    40d4:	93 81       	ldd	r25, Z+3	; 0x03
    40d6:	89 2b       	or	r24, r25
    40d8:	09 f0       	breq	.+2      	; 0x40dc <_Z6searchv+0x410>
    40da:	81 c0       	rjmp	.+258    	; 0x41de <_Z6searchv+0x512>
				{
					MakeDirection(1);
    40dc:	81 e0       	ldi	r24, 0x01	; 1
    40de:	90 e0       	ldi	r25, 0x00	; 0
    40e0:	12 d9       	rcall	.-3548   	; 0x3306 <_Z13MakeDirectioni>
    40e2:	9f ef       	ldi	r25, 0xFF	; 255
    40e4:	ef e7       	ldi	r30, 0x7F	; 127
    40e6:	f6 e1       	ldi	r31, 0x16	; 22
    40e8:	91 50       	subi	r25, 0x01	; 1
    40ea:	e0 40       	sbci	r30, 0x00	; 0
    40ec:	f0 40       	sbci	r31, 0x00	; 0
    40ee:	e1 f7       	brne	.-8      	; 0x40e8 <_Z6searchv+0x41c>
    40f0:	00 c0       	rjmp	.+0      	; 0x40f2 <_Z6searchv+0x426>
    40f2:	00 00       	nop
					_delay_ms(500);
					color=check_for_box();
    40f4:	01 da       	rcall	.-3070   	; 0x34f8 <_Z13check_for_boxv>
    40f6:	90 93 74 02 	sts	0x0274, r25
    40fa:	80 93 73 02 	sts	0x0273, r24
					//back_mm(20);
					if (color>0)
    40fe:	18 16       	cp	r1, r24
    4100:	19 06       	cpc	r1, r25
    4102:	0c f0       	brlt	.+2      	; 0x4106 <_Z6searchv+0x43a>
    4104:	55 c0       	rjmp	.+170    	; 0x41b0 <_Z6searchv+0x4e4>
					{
						switch(color)
    4106:	8b 30       	cpi	r24, 0x0B	; 11
    4108:	91 05       	cpc	r25, r1
    410a:	d9 f0       	breq	.+54     	; 0x4142 <_Z6searchv+0x476>
    410c:	8c 30       	cpi	r24, 0x0C	; 12
    410e:	91 05       	cpc	r25, r1
    4110:	69 f1       	breq	.+90     	; 0x416c <_Z6searchv+0x4a0>
    4112:	0a 97       	sbiw	r24, 0x0a	; 10
    4114:	09 f0       	breq	.+2      	; 0x4118 <_Z6searchv+0x44c>
    4116:	3e c0       	rjmp	.+124    	; 0x4194 <_Z6searchv+0x4c8>
						{
							
							case 10:
							deposit_point(RED);
    4118:	89 e0       	ldi	r24, 0x09	; 9
    411a:	92 e0       	ldi	r25, 0x02	; 2
    411c:	0e 94 3b 16 	call	0x2c76	; 0x2c76 <_Z13deposit_pointPi>
							mapp(Current,final);
    4120:	60 91 63 03 	lds	r22, 0x0363
    4124:	70 91 64 03 	lds	r23, 0x0364
    4128:	80 91 67 03 	lds	r24, 0x0367
    412c:	90 91 68 03 	lds	r25, 0x0368
    4130:	0e 94 6c 12 	call	0x24d8	; 0x24d8 <_Z4mappP3mapS0_>
							Travel(direction);
    4134:	8b e9       	ldi	r24, 0x9B	; 155
    4136:	92 e0       	ldi	r25, 0x02	; 2
    4138:	70 dd       	rcall	.-1312   	; 0x3c1a <_Z6TravelPi>
							dropit();
    413a:	8f db       	rcall	.-2274   	; 0x385a <_Z6dropitv>
							nearest_row_select();
    413c:	0e 94 2c 18 	call	0x3058	; 0x3058 <_Z18nearest_row_selectv>
							break;
    4140:	29 c0       	rjmp	.+82     	; 0x4194 <_Z6searchv+0x4c8>
							case 11:
							deposit_point(GREEN);
    4142:	8f e0       	ldi	r24, 0x0F	; 15
    4144:	92 e0       	ldi	r25, 0x02	; 2
    4146:	0e 94 3b 16 	call	0x2c76	; 0x2c76 <_Z13deposit_pointPi>
							mapp(Current,final);
    414a:	60 91 63 03 	lds	r22, 0x0363
    414e:	70 91 64 03 	lds	r23, 0x0364
    4152:	80 91 67 03 	lds	r24, 0x0367
    4156:	90 91 68 03 	lds	r25, 0x0368
    415a:	0e 94 6c 12 	call	0x24d8	; 0x24d8 <_Z4mappP3mapS0_>
							Travel(direction);
    415e:	8b e9       	ldi	r24, 0x9B	; 155
    4160:	92 e0       	ldi	r25, 0x02	; 2
    4162:	5b dd       	rcall	.-1354   	; 0x3c1a <_Z6TravelPi>
							dropit();
    4164:	7a db       	rcall	.-2316   	; 0x385a <_Z6dropitv>
							nearest_row_select();
    4166:	0e 94 2c 18 	call	0x3058	; 0x3058 <_Z18nearest_row_selectv>
							break;
    416a:	14 c0       	rjmp	.+40     	; 0x4194 <_Z6searchv+0x4c8>
							case 12:
							deposit_point(BLUE);
    416c:	83 e0       	ldi	r24, 0x03	; 3
    416e:	92 e0       	ldi	r25, 0x02	; 2
    4170:	0e 94 3b 16 	call	0x2c76	; 0x2c76 <_Z13deposit_pointPi>
							mapp(Current,final);
    4174:	60 91 63 03 	lds	r22, 0x0363
    4178:	70 91 64 03 	lds	r23, 0x0364
    417c:	80 91 67 03 	lds	r24, 0x0367
    4180:	90 91 68 03 	lds	r25, 0x0368
    4184:	0e 94 6c 12 	call	0x24d8	; 0x24d8 <_Z4mappP3mapS0_>
							Travel(direction);
    4188:	8b e9       	ldi	r24, 0x9B	; 155
    418a:	92 e0       	ldi	r25, 0x02	; 2
    418c:	46 dd       	rcall	.-1396   	; 0x3c1a <_Z6TravelPi>
							dropit();
    418e:	65 db       	rcall	.-2358   	; 0x385a <_Z6dropitv>
							nearest_row_select();
    4190:	0e 94 2c 18 	call	0x3058	; 0x3058 <_Z18nearest_row_selectv>
							break;
						}
						mapp(Current,final);
    4194:	60 91 63 03 	lds	r22, 0x0363
    4198:	70 91 64 03 	lds	r23, 0x0364
    419c:	80 91 67 03 	lds	r24, 0x0367
    41a0:	90 91 68 03 	lds	r25, 0x0368
    41a4:	0e 94 6c 12 	call	0x24d8	; 0x24d8 <_Z4mappP3mapS0_>
						Travel(direction);
    41a8:	8b e9       	ldi	r24, 0x9B	; 155
    41aa:	92 e0       	ldi	r25, 0x02	; 2
    41ac:	36 dd       	rcall	.-1428   	; 0x3c1a <_Z6TravelPi>
						break;
    41ae:	1c c0       	rjmp	.+56     	; 0x41e8 <_Z6searchv+0x51c>
					}
					else
					{
						Current->flag=1;
    41b0:	e0 91 67 03 	lds	r30, 0x0367
    41b4:	f0 91 68 03 	lds	r31, 0x0368
    41b8:	21 e0       	ldi	r18, 0x01	; 1
    41ba:	30 e0       	ldi	r19, 0x00	; 0
    41bc:	33 83       	std	Z+3, r19	; 0x03
    41be:	22 83       	std	Z+2, r18	; 0x02
						if (color==-1)
    41c0:	01 96       	adiw	r24, 0x01	; 1
    41c2:	69 f4       	brne	.+26     	; 0x41de <_Z6searchv+0x512>
						{
							buzzer_on();
    41c4:	0e 94 95 18 	call	0x312a	; 0x312a <_Z9buzzer_onv>
    41c8:	8f ef       	ldi	r24, 0xFF	; 255
    41ca:	9f ef       	ldi	r25, 0xFF	; 255
    41cc:	ec e2       	ldi	r30, 0x2C	; 44
    41ce:	81 50       	subi	r24, 0x01	; 1
    41d0:	90 40       	sbci	r25, 0x00	; 0
    41d2:	e0 40       	sbci	r30, 0x00	; 0
    41d4:	e1 f7       	brne	.-8      	; 0x41ce <_Z6searchv+0x502>
    41d6:	00 c0       	rjmp	.+0      	; 0x41d8 <_Z6searchv+0x50c>
    41d8:	00 00       	nop
							_delay_ms(1000);
							buzzer_off();
    41da:	0e 94 99 18 	call	0x3132	; 0x3132 <_Z10buzzer_offv>
    41de:	d3 94       	inc	r13
    41e0:	d3 94       	inc	r13
	
	
	
	else if (Current->YPOS==8)
	{
		for (int i=1;i<=3;i++)
    41e2:	ff e0       	ldi	r31, 0x0F	; 15
    41e4:	df 12       	cpse	r13, r31
    41e6:	d3 ce       	rjmp	.-602    	; 0x3f8e <_Z6searchv+0x2c2>
			
		}
	}
	
	
}
    41e8:	df 91       	pop	r29
    41ea:	cf 91       	pop	r28
    41ec:	1f 91       	pop	r17
    41ee:	0f 91       	pop	r16
    41f0:	ff 90       	pop	r15
    41f2:	ef 90       	pop	r14
    41f4:	df 90       	pop	r13
    41f6:	cf 90       	pop	r12
    41f8:	bf 90       	pop	r11
    41fa:	af 90       	pop	r10
    41fc:	08 95       	ret

000041fe <main>:
	Travel(direction);
}

//Main Function
int main()
{
    41fe:	2f 92       	push	r2
    4200:	3f 92       	push	r3
    4202:	4f 92       	push	r4
    4204:	5f 92       	push	r5
    4206:	6f 92       	push	r6
    4208:	7f 92       	push	r7
    420a:	8f 92       	push	r8
    420c:	9f 92       	push	r9
    420e:	af 92       	push	r10
    4210:	bf 92       	push	r11
    4212:	cf 92       	push	r12
    4214:	df 92       	push	r13
    4216:	ef 92       	push	r14
    4218:	ff 92       	push	r15
    421a:	0f 93       	push	r16
    421c:	1f 93       	push	r17
    421e:	cf 93       	push	r28
    4220:	df 93       	push	r29
	
	
	
	init_devices_adc();
    4222:	4e d8       	rcall	.-3940   	; 0x32c0 <_Z16init_devices_adcv>
	init_devices_pos();
    4224:	0e 94 96 01 	call	0x32c	; 0x32c <_Z16init_devices_posv>
	lcd_set_4bit();
    4228:	0e 94 a4 12 	call	0x2548	; 0x2548 <_Z12lcd_set_4bitv>
	lcd_init();
    422c:	0e 94 0e 13 	call	0x261c	; 0x261c <_Z8lcd_initv>
	init_buzzer();
    4230:	0e 94 91 18 	call	0x3122	; 0x3122 <_Z11init_buzzerv>
	init_devices_servo();
    4234:	0e 94 a1 15 	call	0x2b42	; 0x2b42 <_Z18init_devices_servov>
	init_devices_color();
    4238:	0e 94 a1 14 	call	0x2942	; 0x2942 <_Z18init_devices_colorv>
	color_sensor_scaling();
    423c:	0e 94 af 14 	call	0x295e	; 0x295e <_Z20color_sensor_scalingv>
	mapinit();
    4240:	0e 94 9d 01 	call	0x33a	; 0x33a <_Z7mapinitv>
	
	dir=1;
    4244:	81 e0       	ldi	r24, 0x01	; 1
    4246:	80 93 72 02 	sts	0x0272, r24
	stepmove(9);
    424a:	89 e0       	ldi	r24, 0x09	; 9
    424c:	90 e0       	ldi	r25, 0x00	; 0
    424e:	98 db       	rcall	.-2256   	; 0x3980 <_Z8stepmovei>
	Current = &obj[7][0];
    4250:	88 ec       	ldi	r24, 0xC8	; 200
    4252:	9c e0       	ldi	r25, 0x0C	; 12
    4254:	90 93 68 03 	sts	0x0368, r25
    4258:	80 93 67 03 	sts	0x0367, r24
	while(1)
	{
		
		if ((obj[1][0].flag==1 && obj[3][0].flag==1 && obj[5][0].flag==1 && obj[9][0].flag==1 && obj[11][0].flag==1 && obj[13][0].flag==1) || (Current->YPOS==8))
    425c:	c2 ed       	ldi	r28, 0xD2	; 210
    425e:	d4 e0       	ldi	r29, 0x04	; 4
		{
			Goto(7,8);
			search();
		}
		else if(Current->YPOS==0 && (obj[1][0].flag==0 || obj[3][0].flag==0 || obj[5][0].flag==0 || obj[9][0].flag==0 || obj[11][0].flag==0 || obj[13][0].flag==0 ))
    4260:	0f 2e       	mov	r0, r31
    4262:	fa e7       	ldi	r31, 0x7A	; 122
    4264:	8f 2e       	mov	r8, r31
    4266:	f7 e0       	ldi	r31, 0x07	; 7
    4268:	9f 2e       	mov	r9, r31
    426a:	f0 2d       	mov	r31, r0
    426c:	02 e2       	ldi	r16, 0x22	; 34
    426e:	1a e0       	ldi	r17, 0x0A	; 10
    4270:	0f 2e       	mov	r0, r31
    4272:	f2 e7       	ldi	r31, 0x72	; 114
    4274:	ef 2e       	mov	r14, r31
    4276:	ff e0       	ldi	r31, 0x0F	; 15
    4278:	ff 2e       	mov	r15, r31
    427a:	f0 2d       	mov	r31, r0
    427c:	0f 2e       	mov	r0, r31
    427e:	fa e1       	ldi	r31, 0x1A	; 26
    4280:	cf 2e       	mov	r12, r31
    4282:	f2 e1       	ldi	r31, 0x12	; 18
    4284:	df 2e       	mov	r13, r31
    4286:	f0 2d       	mov	r31, r0
    4288:	0f 2e       	mov	r0, r31
    428a:	f2 ec       	ldi	r31, 0xC2	; 194
    428c:	af 2e       	mov	r10, r31
    428e:	f4 e1       	ldi	r31, 0x14	; 20
    4290:	bf 2e       	mov	r11, r31
    4292:	f0 2d       	mov	r31, r0
			if(Current->YPOS==0)
			{
				search();
			}
		}
		if(obj[1][0].flag==1 && obj[3][0].flag==1 && obj[5][0].flag==1 && obj[9][0].flag==1 && obj[11][0].flag==1 && obj[13][0].flag==1 && obj[1][8].flag==1 && obj[3][8].flag==1 && obj[5][8].flag==1 && obj[9][8].flag==1 && obj[11][8].flag==1 && obj[13][8].flag==1) break; //buzzer
    4294:	0f 2e       	mov	r0, r31
    4296:	fa ef       	ldi	r31, 0xFA	; 250
    4298:	2f 2e       	mov	r2, r31
    429a:	ff e0       	ldi	r31, 0x0F	; 15
    429c:	3f 2e       	mov	r3, r31
    429e:	f0 2d       	mov	r31, r0
    42a0:	0f 2e       	mov	r0, r31
    42a2:	f2 ea       	ldi	r31, 0xA2	; 162
    42a4:	4f 2e       	mov	r4, r31
    42a6:	f2 e1       	ldi	r31, 0x12	; 18
    42a8:	5f 2e       	mov	r5, r31
    42aa:	f0 2d       	mov	r31, r0
    42ac:	0f 2e       	mov	r0, r31
    42ae:	fa e4       	ldi	r31, 0x4A	; 74
    42b0:	6f 2e       	mov	r6, r31
    42b2:	f5 e1       	ldi	r31, 0x15	; 21
    42b4:	7f 2e       	mov	r7, r31
    42b6:	f0 2d       	mov	r31, r0
	stepmove(9);
	Current = &obj[7][0];
	while(1)
	{
		
		if ((obj[1][0].flag==1 && obj[3][0].flag==1 && obj[5][0].flag==1 && obj[9][0].flag==1 && obj[11][0].flag==1 && obj[13][0].flag==1) || (Current->YPOS==8))
    42b8:	28 81       	ld	r18, Y
    42ba:	39 81       	ldd	r19, Y+1	; 0x01
    42bc:	21 30       	cpi	r18, 0x01	; 1
    42be:	31 05       	cpc	r19, r1
    42c0:	c9 f4       	brne	.+50     	; 0x42f4 <main+0xf6>
    42c2:	f4 01       	movw	r30, r8
    42c4:	80 81       	ld	r24, Z
    42c6:	91 81       	ldd	r25, Z+1	; 0x01
    42c8:	01 97       	sbiw	r24, 0x01	; 1
    42ca:	a1 f4       	brne	.+40     	; 0x42f4 <main+0xf6>
    42cc:	f8 01       	movw	r30, r16
    42ce:	80 81       	ld	r24, Z
    42d0:	91 81       	ldd	r25, Z+1	; 0x01
    42d2:	01 97       	sbiw	r24, 0x01	; 1
    42d4:	79 f4       	brne	.+30     	; 0x42f4 <main+0xf6>
    42d6:	f7 01       	movw	r30, r14
    42d8:	80 81       	ld	r24, Z
    42da:	91 81       	ldd	r25, Z+1	; 0x01
    42dc:	01 97       	sbiw	r24, 0x01	; 1
    42de:	51 f4       	brne	.+20     	; 0x42f4 <main+0xf6>
    42e0:	f6 01       	movw	r30, r12
    42e2:	80 81       	ld	r24, Z
    42e4:	91 81       	ldd	r25, Z+1	; 0x01
    42e6:	01 97       	sbiw	r24, 0x01	; 1
    42e8:	29 f4       	brne	.+10     	; 0x42f4 <main+0xf6>
    42ea:	f5 01       	movw	r30, r10
    42ec:	80 81       	ld	r24, Z
    42ee:	91 81       	ldd	r25, Z+1	; 0x01
    42f0:	01 97       	sbiw	r24, 0x01	; 1
    42f2:	49 f0       	breq	.+18     	; 0x4306 <main+0x108>
    42f4:	e0 91 67 03 	lds	r30, 0x0367
    42f8:	f0 91 68 03 	lds	r31, 0x0368
    42fc:	87 81       	ldd	r24, Z+7	; 0x07
    42fe:	90 85       	ldd	r25, Z+8	; 0x08
    4300:	88 30       	cpi	r24, 0x08	; 8
    4302:	91 05       	cpc	r25, r1
    4304:	29 f4       	brne	.+10     	; 0x4310 <main+0x112>
		{
			Goto(7,8);
    4306:	68 e0       	ldi	r22, 0x08	; 8
    4308:	87 e0       	ldi	r24, 0x07	; 7
    430a:	c1 dc       	rcall	.-1662   	; 0x3c8e <_Z4Gotohh>
			search();
    430c:	df dc       	rcall	.-1602   	; 0x3ccc <_Z6searchv>
    430e:	1e c0       	rjmp	.+60     	; 0x434c <main+0x14e>
		}
		else if(Current->YPOS==0 && (obj[1][0].flag==0 || obj[3][0].flag==0 || obj[5][0].flag==0 || obj[9][0].flag==0 || obj[11][0].flag==0 || obj[13][0].flag==0 ))
    4310:	89 2b       	or	r24, r25
    4312:	e1 f4       	brne	.+56     	; 0x434c <main+0x14e>
    4314:	23 2b       	or	r18, r19
    4316:	c9 f0       	breq	.+50     	; 0x434a <main+0x14c>
    4318:	f4 01       	movw	r30, r8
    431a:	80 81       	ld	r24, Z
    431c:	91 81       	ldd	r25, Z+1	; 0x01
    431e:	89 2b       	or	r24, r25
    4320:	a1 f0       	breq	.+40     	; 0x434a <main+0x14c>
    4322:	f8 01       	movw	r30, r16
    4324:	80 81       	ld	r24, Z
    4326:	91 81       	ldd	r25, Z+1	; 0x01
    4328:	89 2b       	or	r24, r25
    432a:	79 f0       	breq	.+30     	; 0x434a <main+0x14c>
    432c:	f7 01       	movw	r30, r14
    432e:	80 81       	ld	r24, Z
    4330:	91 81       	ldd	r25, Z+1	; 0x01
    4332:	89 2b       	or	r24, r25
    4334:	51 f0       	breq	.+20     	; 0x434a <main+0x14c>
    4336:	f6 01       	movw	r30, r12
    4338:	80 81       	ld	r24, Z
    433a:	91 81       	ldd	r25, Z+1	; 0x01
    433c:	89 2b       	or	r24, r25
    433e:	29 f0       	breq	.+10     	; 0x434a <main+0x14c>
    4340:	f5 01       	movw	r30, r10
    4342:	80 81       	ld	r24, Z
    4344:	91 81       	ldd	r25, Z+1	; 0x01
    4346:	89 2b       	or	r24, r25
    4348:	09 f4       	brne	.+2      	; 0x434c <main+0x14e>
		{
			if(Current->YPOS==0)
			{
				search();
    434a:	c0 dc       	rcall	.-1664   	; 0x3ccc <_Z6searchv>
			}
		}
		if(obj[1][0].flag==1 && obj[3][0].flag==1 && obj[5][0].flag==1 && obj[9][0].flag==1 && obj[11][0].flag==1 && obj[13][0].flag==1 && obj[1][8].flag==1 && obj[3][8].flag==1 && obj[5][8].flag==1 && obj[9][8].flag==1 && obj[11][8].flag==1 && obj[13][8].flag==1) break; //buzzer
    434c:	88 81       	ld	r24, Y
    434e:	99 81       	ldd	r25, Y+1	; 0x01
    4350:	01 97       	sbiw	r24, 0x01	; 1
    4352:	09 f0       	breq	.+2      	; 0x4356 <main+0x158>
    4354:	b1 cf       	rjmp	.-158    	; 0x42b8 <main+0xba>
    4356:	f4 01       	movw	r30, r8
    4358:	80 81       	ld	r24, Z
    435a:	91 81       	ldd	r25, Z+1	; 0x01
    435c:	01 97       	sbiw	r24, 0x01	; 1
    435e:	09 f0       	breq	.+2      	; 0x4362 <main+0x164>
    4360:	ab cf       	rjmp	.-170    	; 0x42b8 <main+0xba>
    4362:	f8 01       	movw	r30, r16
    4364:	80 81       	ld	r24, Z
    4366:	91 81       	ldd	r25, Z+1	; 0x01
    4368:	01 97       	sbiw	r24, 0x01	; 1
    436a:	09 f0       	breq	.+2      	; 0x436e <main+0x170>
    436c:	a5 cf       	rjmp	.-182    	; 0x42b8 <main+0xba>
    436e:	f7 01       	movw	r30, r14
    4370:	80 81       	ld	r24, Z
    4372:	91 81       	ldd	r25, Z+1	; 0x01
    4374:	01 97       	sbiw	r24, 0x01	; 1
    4376:	09 f0       	breq	.+2      	; 0x437a <main+0x17c>
    4378:	9f cf       	rjmp	.-194    	; 0x42b8 <main+0xba>
    437a:	f6 01       	movw	r30, r12
    437c:	80 81       	ld	r24, Z
    437e:	91 81       	ldd	r25, Z+1	; 0x01
    4380:	01 97       	sbiw	r24, 0x01	; 1
    4382:	09 f0       	breq	.+2      	; 0x4386 <main+0x188>
    4384:	99 cf       	rjmp	.-206    	; 0x42b8 <main+0xba>
    4386:	f5 01       	movw	r30, r10
    4388:	80 81       	ld	r24, Z
    438a:	91 81       	ldd	r25, Z+1	; 0x01
    438c:	01 97       	sbiw	r24, 0x01	; 1
    438e:	09 f0       	breq	.+2      	; 0x4392 <main+0x194>
    4390:	93 cf       	rjmp	.-218    	; 0x42b8 <main+0xba>
    4392:	ea e5       	ldi	r30, 0x5A	; 90
    4394:	f5 e0       	ldi	r31, 0x05	; 5
    4396:	80 81       	ld	r24, Z
    4398:	91 81       	ldd	r25, Z+1	; 0x01
    439a:	01 97       	sbiw	r24, 0x01	; 1
    439c:	09 f0       	breq	.+2      	; 0x43a0 <main+0x1a2>
    439e:	8c cf       	rjmp	.-232    	; 0x42b8 <main+0xba>
    43a0:	e2 e0       	ldi	r30, 0x02	; 2
    43a2:	f8 e0       	ldi	r31, 0x08	; 8
    43a4:	80 81       	ld	r24, Z
    43a6:	91 81       	ldd	r25, Z+1	; 0x01
    43a8:	01 97       	sbiw	r24, 0x01	; 1
    43aa:	09 f0       	breq	.+2      	; 0x43ae <main+0x1b0>
    43ac:	85 cf       	rjmp	.-246    	; 0x42b8 <main+0xba>
    43ae:	ea ea       	ldi	r30, 0xAA	; 170
    43b0:	fa e0       	ldi	r31, 0x0A	; 10
    43b2:	80 81       	ld	r24, Z
    43b4:	91 81       	ldd	r25, Z+1	; 0x01
    43b6:	01 97       	sbiw	r24, 0x01	; 1
    43b8:	09 f0       	breq	.+2      	; 0x43bc <main+0x1be>
    43ba:	7e cf       	rjmp	.-260    	; 0x42b8 <main+0xba>
    43bc:	f1 01       	movw	r30, r2
    43be:	80 81       	ld	r24, Z
    43c0:	91 81       	ldd	r25, Z+1	; 0x01
    43c2:	01 97       	sbiw	r24, 0x01	; 1
    43c4:	09 f0       	breq	.+2      	; 0x43c8 <main+0x1ca>
    43c6:	78 cf       	rjmp	.-272    	; 0x42b8 <main+0xba>
    43c8:	f2 01       	movw	r30, r4
    43ca:	80 81       	ld	r24, Z
    43cc:	91 81       	ldd	r25, Z+1	; 0x01
    43ce:	01 97       	sbiw	r24, 0x01	; 1
    43d0:	09 f0       	breq	.+2      	; 0x43d4 <main+0x1d6>
    43d2:	72 cf       	rjmp	.-284    	; 0x42b8 <main+0xba>
    43d4:	f3 01       	movw	r30, r6
    43d6:	80 81       	ld	r24, Z
    43d8:	91 81       	ldd	r25, Z+1	; 0x01
    43da:	01 97       	sbiw	r24, 0x01	; 1
    43dc:	09 f0       	breq	.+2      	; 0x43e0 <main+0x1e2>
    43de:	6c cf       	rjmp	.-296    	; 0x42b8 <main+0xba>
		
		
		
	}
		buzzer_on();
    43e0:	0e 94 95 18 	call	0x312a	; 0x312a <_Z9buzzer_onv>
}
    43e4:	80 e0       	ldi	r24, 0x00	; 0
    43e6:	90 e0       	ldi	r25, 0x00	; 0
    43e8:	df 91       	pop	r29
    43ea:	cf 91       	pop	r28
    43ec:	1f 91       	pop	r17
    43ee:	0f 91       	pop	r16
    43f0:	ff 90       	pop	r15
    43f2:	ef 90       	pop	r14
    43f4:	df 90       	pop	r13
    43f6:	cf 90       	pop	r12
    43f8:	bf 90       	pop	r11
    43fa:	af 90       	pop	r10
    43fc:	9f 90       	pop	r9
    43fe:	8f 90       	pop	r8
    4400:	7f 90       	pop	r7
    4402:	6f 90       	pop	r6
    4404:	5f 90       	pop	r5
    4406:	4f 90       	pop	r4
    4408:	3f 90       	pop	r3
    440a:	2f 90       	pop	r2
    440c:	08 95       	ret

0000440e <_Z13size_of_arrayPi>:
	
}
int size_of_array(int arr[])
{
	int i=0;
	while(arr[i]!=99)
    440e:	fc 01       	movw	r30, r24
    4410:	20 81       	ld	r18, Z
    4412:	31 81       	ldd	r19, Z+1	; 0x01
    4414:	23 36       	cpi	r18, 0x63	; 99
    4416:	31 05       	cpc	r19, r1
    4418:	51 f0       	breq	.+20     	; 0x442e <_Z13size_of_arrayPi+0x20>
    441a:	32 96       	adiw	r30, 0x02	; 2
	linear_distance_mm(80);
	
}
int size_of_array(int arr[])
{
	int i=0;
    441c:	80 e0       	ldi	r24, 0x00	; 0
    441e:	90 e0       	ldi	r25, 0x00	; 0
	while(arr[i]!=99)
	{
		i++;
    4420:	01 96       	adiw	r24, 0x01	; 1
	
}
int size_of_array(int arr[])
{
	int i=0;
	while(arr[i]!=99)
    4422:	21 91       	ld	r18, Z+
    4424:	31 91       	ld	r19, Z+
    4426:	23 36       	cpi	r18, 0x63	; 99
    4428:	31 05       	cpc	r19, r1
    442a:	d1 f7       	brne	.-12     	; 0x4420 <_Z13size_of_arrayPi+0x12>
    442c:	08 95       	ret
	linear_distance_mm(80);
	
}
int size_of_array(int arr[])
{
	int i=0;
    442e:	80 e0       	ldi	r24, 0x00	; 0
    4430:	90 e0       	ldi	r25, 0x00	; 0
	while(arr[i]!=99)
	{
		i++;
	}
	return(i);
}
    4432:	08 95       	ret

00004434 <_GLOBAL__sub_I_Left_white_line>:
#include "deposit_point selector.h"
#include "buzzer_beep.h"
int GREEN[3]= {1,5,99};
int RED[3]=   {2,99,99};
int BLUE[3]=	{3,4,99};
int red_count=size_of_array(RED);
    4434:	89 e0       	ldi	r24, 0x09	; 9
    4436:	92 e0       	ldi	r25, 0x02	; 2
    4438:	ea df       	rcall	.-44     	; 0x440e <_Z13size_of_arrayPi>
    443a:	90 93 7e 02 	sts	0x027E, r25
    443e:	80 93 7d 02 	sts	0x027D, r24
int green_count=size_of_array(GREEN);
    4442:	8f e0       	ldi	r24, 0x0F	; 15
    4444:	92 e0       	ldi	r25, 0x02	; 2
    4446:	e3 df       	rcall	.-58     	; 0x440e <_Z13size_of_arrayPi>
    4448:	90 93 7c 02 	sts	0x027C, r25
    444c:	80 93 7b 02 	sts	0x027B, r24
int blue_count=size_of_array(BLUE);
    4450:	83 e0       	ldi	r24, 0x03	; 3
    4452:	92 e0       	ldi	r25, 0x02	; 2
    4454:	dc df       	rcall	.-72     	; 0x440e <_Z13size_of_arrayPi>
    4456:	90 93 7a 02 	sts	0x027A, r25
    445a:	80 93 79 02 	sts	0x0279, r24
    445e:	08 95       	ret

00004460 <__subsf3>:
    4460:	50 58       	subi	r21, 0x80	; 128

00004462 <__addsf3>:
    4462:	bb 27       	eor	r27, r27
    4464:	aa 27       	eor	r26, r26
    4466:	0e d0       	rcall	.+28     	; 0x4484 <__addsf3x>
    4468:	4d c1       	rjmp	.+666    	; 0x4704 <__fp_round>
    446a:	3e d1       	rcall	.+636    	; 0x46e8 <__fp_pscA>
    446c:	30 f0       	brcs	.+12     	; 0x447a <__addsf3+0x18>
    446e:	43 d1       	rcall	.+646    	; 0x46f6 <__fp_pscB>
    4470:	20 f0       	brcs	.+8      	; 0x447a <__addsf3+0x18>
    4472:	31 f4       	brne	.+12     	; 0x4480 <__addsf3+0x1e>
    4474:	9f 3f       	cpi	r25, 0xFF	; 255
    4476:	11 f4       	brne	.+4      	; 0x447c <__addsf3+0x1a>
    4478:	1e f4       	brtc	.+6      	; 0x4480 <__addsf3+0x1e>
    447a:	33 c1       	rjmp	.+614    	; 0x46e2 <__fp_nan>
    447c:	0e f4       	brtc	.+2      	; 0x4480 <__addsf3+0x1e>
    447e:	e0 95       	com	r30
    4480:	e7 fb       	bst	r30, 7
    4482:	29 c1       	rjmp	.+594    	; 0x46d6 <__fp_inf>

00004484 <__addsf3x>:
    4484:	e9 2f       	mov	r30, r25
    4486:	4f d1       	rcall	.+670    	; 0x4726 <__fp_split3>
    4488:	80 f3       	brcs	.-32     	; 0x446a <__addsf3+0x8>
    448a:	ba 17       	cp	r27, r26
    448c:	62 07       	cpc	r22, r18
    448e:	73 07       	cpc	r23, r19
    4490:	84 07       	cpc	r24, r20
    4492:	95 07       	cpc	r25, r21
    4494:	18 f0       	brcs	.+6      	; 0x449c <__addsf3x+0x18>
    4496:	71 f4       	brne	.+28     	; 0x44b4 <__addsf3x+0x30>
    4498:	9e f5       	brtc	.+102    	; 0x4500 <__addsf3x+0x7c>
    449a:	67 c1       	rjmp	.+718    	; 0x476a <__fp_zero>
    449c:	0e f4       	brtc	.+2      	; 0x44a0 <__addsf3x+0x1c>
    449e:	e0 95       	com	r30
    44a0:	0b 2e       	mov	r0, r27
    44a2:	ba 2f       	mov	r27, r26
    44a4:	a0 2d       	mov	r26, r0
    44a6:	0b 01       	movw	r0, r22
    44a8:	b9 01       	movw	r22, r18
    44aa:	90 01       	movw	r18, r0
    44ac:	0c 01       	movw	r0, r24
    44ae:	ca 01       	movw	r24, r20
    44b0:	a0 01       	movw	r20, r0
    44b2:	11 24       	eor	r1, r1
    44b4:	ff 27       	eor	r31, r31
    44b6:	59 1b       	sub	r21, r25
    44b8:	99 f0       	breq	.+38     	; 0x44e0 <__addsf3x+0x5c>
    44ba:	59 3f       	cpi	r21, 0xF9	; 249
    44bc:	50 f4       	brcc	.+20     	; 0x44d2 <__addsf3x+0x4e>
    44be:	50 3e       	cpi	r21, 0xE0	; 224
    44c0:	68 f1       	brcs	.+90     	; 0x451c <__addsf3x+0x98>
    44c2:	1a 16       	cp	r1, r26
    44c4:	f0 40       	sbci	r31, 0x00	; 0
    44c6:	a2 2f       	mov	r26, r18
    44c8:	23 2f       	mov	r18, r19
    44ca:	34 2f       	mov	r19, r20
    44cc:	44 27       	eor	r20, r20
    44ce:	58 5f       	subi	r21, 0xF8	; 248
    44d0:	f3 cf       	rjmp	.-26     	; 0x44b8 <__addsf3x+0x34>
    44d2:	46 95       	lsr	r20
    44d4:	37 95       	ror	r19
    44d6:	27 95       	ror	r18
    44d8:	a7 95       	ror	r26
    44da:	f0 40       	sbci	r31, 0x00	; 0
    44dc:	53 95       	inc	r21
    44de:	c9 f7       	brne	.-14     	; 0x44d2 <__addsf3x+0x4e>
    44e0:	7e f4       	brtc	.+30     	; 0x4500 <__addsf3x+0x7c>
    44e2:	1f 16       	cp	r1, r31
    44e4:	ba 0b       	sbc	r27, r26
    44e6:	62 0b       	sbc	r22, r18
    44e8:	73 0b       	sbc	r23, r19
    44ea:	84 0b       	sbc	r24, r20
    44ec:	ba f0       	brmi	.+46     	; 0x451c <__addsf3x+0x98>
    44ee:	91 50       	subi	r25, 0x01	; 1
    44f0:	a1 f0       	breq	.+40     	; 0x451a <__addsf3x+0x96>
    44f2:	ff 0f       	add	r31, r31
    44f4:	bb 1f       	adc	r27, r27
    44f6:	66 1f       	adc	r22, r22
    44f8:	77 1f       	adc	r23, r23
    44fa:	88 1f       	adc	r24, r24
    44fc:	c2 f7       	brpl	.-16     	; 0x44ee <__addsf3x+0x6a>
    44fe:	0e c0       	rjmp	.+28     	; 0x451c <__addsf3x+0x98>
    4500:	ba 0f       	add	r27, r26
    4502:	62 1f       	adc	r22, r18
    4504:	73 1f       	adc	r23, r19
    4506:	84 1f       	adc	r24, r20
    4508:	48 f4       	brcc	.+18     	; 0x451c <__addsf3x+0x98>
    450a:	87 95       	ror	r24
    450c:	77 95       	ror	r23
    450e:	67 95       	ror	r22
    4510:	b7 95       	ror	r27
    4512:	f7 95       	ror	r31
    4514:	9e 3f       	cpi	r25, 0xFE	; 254
    4516:	08 f0       	brcs	.+2      	; 0x451a <__addsf3x+0x96>
    4518:	b3 cf       	rjmp	.-154    	; 0x4480 <__addsf3+0x1e>
    451a:	93 95       	inc	r25
    451c:	88 0f       	add	r24, r24
    451e:	08 f0       	brcs	.+2      	; 0x4522 <__addsf3x+0x9e>
    4520:	99 27       	eor	r25, r25
    4522:	ee 0f       	add	r30, r30
    4524:	97 95       	ror	r25
    4526:	87 95       	ror	r24
    4528:	08 95       	ret

0000452a <__divsf3>:
    452a:	0c d0       	rcall	.+24     	; 0x4544 <__divsf3x>
    452c:	eb c0       	rjmp	.+470    	; 0x4704 <__fp_round>
    452e:	e3 d0       	rcall	.+454    	; 0x46f6 <__fp_pscB>
    4530:	40 f0       	brcs	.+16     	; 0x4542 <__divsf3+0x18>
    4532:	da d0       	rcall	.+436    	; 0x46e8 <__fp_pscA>
    4534:	30 f0       	brcs	.+12     	; 0x4542 <__divsf3+0x18>
    4536:	21 f4       	brne	.+8      	; 0x4540 <__divsf3+0x16>
    4538:	5f 3f       	cpi	r21, 0xFF	; 255
    453a:	19 f0       	breq	.+6      	; 0x4542 <__divsf3+0x18>
    453c:	cc c0       	rjmp	.+408    	; 0x46d6 <__fp_inf>
    453e:	51 11       	cpse	r21, r1
    4540:	15 c1       	rjmp	.+554    	; 0x476c <__fp_szero>
    4542:	cf c0       	rjmp	.+414    	; 0x46e2 <__fp_nan>

00004544 <__divsf3x>:
    4544:	f0 d0       	rcall	.+480    	; 0x4726 <__fp_split3>
    4546:	98 f3       	brcs	.-26     	; 0x452e <__divsf3+0x4>

00004548 <__divsf3_pse>:
    4548:	99 23       	and	r25, r25
    454a:	c9 f3       	breq	.-14     	; 0x453e <__divsf3+0x14>
    454c:	55 23       	and	r21, r21
    454e:	b1 f3       	breq	.-20     	; 0x453c <__divsf3+0x12>
    4550:	95 1b       	sub	r25, r21
    4552:	55 0b       	sbc	r21, r21
    4554:	bb 27       	eor	r27, r27
    4556:	aa 27       	eor	r26, r26
    4558:	62 17       	cp	r22, r18
    455a:	73 07       	cpc	r23, r19
    455c:	84 07       	cpc	r24, r20
    455e:	38 f0       	brcs	.+14     	; 0x456e <__divsf3_pse+0x26>
    4560:	9f 5f       	subi	r25, 0xFF	; 255
    4562:	5f 4f       	sbci	r21, 0xFF	; 255
    4564:	22 0f       	add	r18, r18
    4566:	33 1f       	adc	r19, r19
    4568:	44 1f       	adc	r20, r20
    456a:	aa 1f       	adc	r26, r26
    456c:	a9 f3       	breq	.-22     	; 0x4558 <__divsf3_pse+0x10>
    456e:	33 d0       	rcall	.+102    	; 0x45d6 <__divsf3_pse+0x8e>
    4570:	0e 2e       	mov	r0, r30
    4572:	3a f0       	brmi	.+14     	; 0x4582 <__divsf3_pse+0x3a>
    4574:	e0 e8       	ldi	r30, 0x80	; 128
    4576:	30 d0       	rcall	.+96     	; 0x45d8 <__divsf3_pse+0x90>
    4578:	91 50       	subi	r25, 0x01	; 1
    457a:	50 40       	sbci	r21, 0x00	; 0
    457c:	e6 95       	lsr	r30
    457e:	00 1c       	adc	r0, r0
    4580:	ca f7       	brpl	.-14     	; 0x4574 <__divsf3_pse+0x2c>
    4582:	29 d0       	rcall	.+82     	; 0x45d6 <__divsf3_pse+0x8e>
    4584:	fe 2f       	mov	r31, r30
    4586:	27 d0       	rcall	.+78     	; 0x45d6 <__divsf3_pse+0x8e>
    4588:	66 0f       	add	r22, r22
    458a:	77 1f       	adc	r23, r23
    458c:	88 1f       	adc	r24, r24
    458e:	bb 1f       	adc	r27, r27
    4590:	26 17       	cp	r18, r22
    4592:	37 07       	cpc	r19, r23
    4594:	48 07       	cpc	r20, r24
    4596:	ab 07       	cpc	r26, r27
    4598:	b0 e8       	ldi	r27, 0x80	; 128
    459a:	09 f0       	breq	.+2      	; 0x459e <__divsf3_pse+0x56>
    459c:	bb 0b       	sbc	r27, r27
    459e:	80 2d       	mov	r24, r0
    45a0:	bf 01       	movw	r22, r30
    45a2:	ff 27       	eor	r31, r31
    45a4:	93 58       	subi	r25, 0x83	; 131
    45a6:	5f 4f       	sbci	r21, 0xFF	; 255
    45a8:	2a f0       	brmi	.+10     	; 0x45b4 <__divsf3_pse+0x6c>
    45aa:	9e 3f       	cpi	r25, 0xFE	; 254
    45ac:	51 05       	cpc	r21, r1
    45ae:	68 f0       	brcs	.+26     	; 0x45ca <__divsf3_pse+0x82>
    45b0:	92 c0       	rjmp	.+292    	; 0x46d6 <__fp_inf>
    45b2:	dc c0       	rjmp	.+440    	; 0x476c <__fp_szero>
    45b4:	5f 3f       	cpi	r21, 0xFF	; 255
    45b6:	ec f3       	brlt	.-6      	; 0x45b2 <__divsf3_pse+0x6a>
    45b8:	98 3e       	cpi	r25, 0xE8	; 232
    45ba:	dc f3       	brlt	.-10     	; 0x45b2 <__divsf3_pse+0x6a>
    45bc:	86 95       	lsr	r24
    45be:	77 95       	ror	r23
    45c0:	67 95       	ror	r22
    45c2:	b7 95       	ror	r27
    45c4:	f7 95       	ror	r31
    45c6:	9f 5f       	subi	r25, 0xFF	; 255
    45c8:	c9 f7       	brne	.-14     	; 0x45bc <__divsf3_pse+0x74>
    45ca:	88 0f       	add	r24, r24
    45cc:	91 1d       	adc	r25, r1
    45ce:	96 95       	lsr	r25
    45d0:	87 95       	ror	r24
    45d2:	97 f9       	bld	r25, 7
    45d4:	08 95       	ret
    45d6:	e1 e0       	ldi	r30, 0x01	; 1
    45d8:	66 0f       	add	r22, r22
    45da:	77 1f       	adc	r23, r23
    45dc:	88 1f       	adc	r24, r24
    45de:	bb 1f       	adc	r27, r27
    45e0:	62 17       	cp	r22, r18
    45e2:	73 07       	cpc	r23, r19
    45e4:	84 07       	cpc	r24, r20
    45e6:	ba 07       	cpc	r27, r26
    45e8:	20 f0       	brcs	.+8      	; 0x45f2 <__divsf3_pse+0xaa>
    45ea:	62 1b       	sub	r22, r18
    45ec:	73 0b       	sbc	r23, r19
    45ee:	84 0b       	sbc	r24, r20
    45f0:	ba 0b       	sbc	r27, r26
    45f2:	ee 1f       	adc	r30, r30
    45f4:	88 f7       	brcc	.-30     	; 0x45d8 <__divsf3_pse+0x90>
    45f6:	e0 95       	com	r30
    45f8:	08 95       	ret

000045fa <__fixsfsi>:
    45fa:	04 d0       	rcall	.+8      	; 0x4604 <__fixunssfsi>
    45fc:	68 94       	set
    45fe:	b1 11       	cpse	r27, r1
    4600:	b5 c0       	rjmp	.+362    	; 0x476c <__fp_szero>
    4602:	08 95       	ret

00004604 <__fixunssfsi>:
    4604:	98 d0       	rcall	.+304    	; 0x4736 <__fp_splitA>
    4606:	88 f0       	brcs	.+34     	; 0x462a <__fixunssfsi+0x26>
    4608:	9f 57       	subi	r25, 0x7F	; 127
    460a:	90 f0       	brcs	.+36     	; 0x4630 <__fixunssfsi+0x2c>
    460c:	b9 2f       	mov	r27, r25
    460e:	99 27       	eor	r25, r25
    4610:	b7 51       	subi	r27, 0x17	; 23
    4612:	a0 f0       	brcs	.+40     	; 0x463c <__fixunssfsi+0x38>
    4614:	d1 f0       	breq	.+52     	; 0x464a <__fixunssfsi+0x46>
    4616:	66 0f       	add	r22, r22
    4618:	77 1f       	adc	r23, r23
    461a:	88 1f       	adc	r24, r24
    461c:	99 1f       	adc	r25, r25
    461e:	1a f0       	brmi	.+6      	; 0x4626 <__fixunssfsi+0x22>
    4620:	ba 95       	dec	r27
    4622:	c9 f7       	brne	.-14     	; 0x4616 <__fixunssfsi+0x12>
    4624:	12 c0       	rjmp	.+36     	; 0x464a <__fixunssfsi+0x46>
    4626:	b1 30       	cpi	r27, 0x01	; 1
    4628:	81 f0       	breq	.+32     	; 0x464a <__fixunssfsi+0x46>
    462a:	9f d0       	rcall	.+318    	; 0x476a <__fp_zero>
    462c:	b1 e0       	ldi	r27, 0x01	; 1
    462e:	08 95       	ret
    4630:	9c c0       	rjmp	.+312    	; 0x476a <__fp_zero>
    4632:	67 2f       	mov	r22, r23
    4634:	78 2f       	mov	r23, r24
    4636:	88 27       	eor	r24, r24
    4638:	b8 5f       	subi	r27, 0xF8	; 248
    463a:	39 f0       	breq	.+14     	; 0x464a <__fixunssfsi+0x46>
    463c:	b9 3f       	cpi	r27, 0xF9	; 249
    463e:	cc f3       	brlt	.-14     	; 0x4632 <__fixunssfsi+0x2e>
    4640:	86 95       	lsr	r24
    4642:	77 95       	ror	r23
    4644:	67 95       	ror	r22
    4646:	b3 95       	inc	r27
    4648:	d9 f7       	brne	.-10     	; 0x4640 <__fixunssfsi+0x3c>
    464a:	3e f4       	brtc	.+14     	; 0x465a <__fixunssfsi+0x56>
    464c:	90 95       	com	r25
    464e:	80 95       	com	r24
    4650:	70 95       	com	r23
    4652:	61 95       	neg	r22
    4654:	7f 4f       	sbci	r23, 0xFF	; 255
    4656:	8f 4f       	sbci	r24, 0xFF	; 255
    4658:	9f 4f       	sbci	r25, 0xFF	; 255
    465a:	08 95       	ret

0000465c <__floatunsisf>:
    465c:	e8 94       	clt
    465e:	09 c0       	rjmp	.+18     	; 0x4672 <__floatsisf+0x12>

00004660 <__floatsisf>:
    4660:	97 fb       	bst	r25, 7
    4662:	3e f4       	brtc	.+14     	; 0x4672 <__floatsisf+0x12>
    4664:	90 95       	com	r25
    4666:	80 95       	com	r24
    4668:	70 95       	com	r23
    466a:	61 95       	neg	r22
    466c:	7f 4f       	sbci	r23, 0xFF	; 255
    466e:	8f 4f       	sbci	r24, 0xFF	; 255
    4670:	9f 4f       	sbci	r25, 0xFF	; 255
    4672:	99 23       	and	r25, r25
    4674:	a9 f0       	breq	.+42     	; 0x46a0 <__floatsisf+0x40>
    4676:	f9 2f       	mov	r31, r25
    4678:	96 e9       	ldi	r25, 0x96	; 150
    467a:	bb 27       	eor	r27, r27
    467c:	93 95       	inc	r25
    467e:	f6 95       	lsr	r31
    4680:	87 95       	ror	r24
    4682:	77 95       	ror	r23
    4684:	67 95       	ror	r22
    4686:	b7 95       	ror	r27
    4688:	f1 11       	cpse	r31, r1
    468a:	f8 cf       	rjmp	.-16     	; 0x467c <__floatsisf+0x1c>
    468c:	fa f4       	brpl	.+62     	; 0x46cc <__floatsisf+0x6c>
    468e:	bb 0f       	add	r27, r27
    4690:	11 f4       	brne	.+4      	; 0x4696 <__floatsisf+0x36>
    4692:	60 ff       	sbrs	r22, 0
    4694:	1b c0       	rjmp	.+54     	; 0x46cc <__floatsisf+0x6c>
    4696:	6f 5f       	subi	r22, 0xFF	; 255
    4698:	7f 4f       	sbci	r23, 0xFF	; 255
    469a:	8f 4f       	sbci	r24, 0xFF	; 255
    469c:	9f 4f       	sbci	r25, 0xFF	; 255
    469e:	16 c0       	rjmp	.+44     	; 0x46cc <__floatsisf+0x6c>
    46a0:	88 23       	and	r24, r24
    46a2:	11 f0       	breq	.+4      	; 0x46a8 <__floatsisf+0x48>
    46a4:	96 e9       	ldi	r25, 0x96	; 150
    46a6:	11 c0       	rjmp	.+34     	; 0x46ca <__floatsisf+0x6a>
    46a8:	77 23       	and	r23, r23
    46aa:	21 f0       	breq	.+8      	; 0x46b4 <__floatsisf+0x54>
    46ac:	9e e8       	ldi	r25, 0x8E	; 142
    46ae:	87 2f       	mov	r24, r23
    46b0:	76 2f       	mov	r23, r22
    46b2:	05 c0       	rjmp	.+10     	; 0x46be <__floatsisf+0x5e>
    46b4:	66 23       	and	r22, r22
    46b6:	71 f0       	breq	.+28     	; 0x46d4 <__floatsisf+0x74>
    46b8:	96 e8       	ldi	r25, 0x86	; 134
    46ba:	86 2f       	mov	r24, r22
    46bc:	70 e0       	ldi	r23, 0x00	; 0
    46be:	60 e0       	ldi	r22, 0x00	; 0
    46c0:	2a f0       	brmi	.+10     	; 0x46cc <__floatsisf+0x6c>
    46c2:	9a 95       	dec	r25
    46c4:	66 0f       	add	r22, r22
    46c6:	77 1f       	adc	r23, r23
    46c8:	88 1f       	adc	r24, r24
    46ca:	da f7       	brpl	.-10     	; 0x46c2 <__floatsisf+0x62>
    46cc:	88 0f       	add	r24, r24
    46ce:	96 95       	lsr	r25
    46d0:	87 95       	ror	r24
    46d2:	97 f9       	bld	r25, 7
    46d4:	08 95       	ret

000046d6 <__fp_inf>:
    46d6:	97 f9       	bld	r25, 7
    46d8:	9f 67       	ori	r25, 0x7F	; 127
    46da:	80 e8       	ldi	r24, 0x80	; 128
    46dc:	70 e0       	ldi	r23, 0x00	; 0
    46de:	60 e0       	ldi	r22, 0x00	; 0
    46e0:	08 95       	ret

000046e2 <__fp_nan>:
    46e2:	9f ef       	ldi	r25, 0xFF	; 255
    46e4:	80 ec       	ldi	r24, 0xC0	; 192
    46e6:	08 95       	ret

000046e8 <__fp_pscA>:
    46e8:	00 24       	eor	r0, r0
    46ea:	0a 94       	dec	r0
    46ec:	16 16       	cp	r1, r22
    46ee:	17 06       	cpc	r1, r23
    46f0:	18 06       	cpc	r1, r24
    46f2:	09 06       	cpc	r0, r25
    46f4:	08 95       	ret

000046f6 <__fp_pscB>:
    46f6:	00 24       	eor	r0, r0
    46f8:	0a 94       	dec	r0
    46fa:	12 16       	cp	r1, r18
    46fc:	13 06       	cpc	r1, r19
    46fe:	14 06       	cpc	r1, r20
    4700:	05 06       	cpc	r0, r21
    4702:	08 95       	ret

00004704 <__fp_round>:
    4704:	09 2e       	mov	r0, r25
    4706:	03 94       	inc	r0
    4708:	00 0c       	add	r0, r0
    470a:	11 f4       	brne	.+4      	; 0x4710 <__fp_round+0xc>
    470c:	88 23       	and	r24, r24
    470e:	52 f0       	brmi	.+20     	; 0x4724 <__fp_round+0x20>
    4710:	bb 0f       	add	r27, r27
    4712:	40 f4       	brcc	.+16     	; 0x4724 <__fp_round+0x20>
    4714:	bf 2b       	or	r27, r31
    4716:	11 f4       	brne	.+4      	; 0x471c <__fp_round+0x18>
    4718:	60 ff       	sbrs	r22, 0
    471a:	04 c0       	rjmp	.+8      	; 0x4724 <__fp_round+0x20>
    471c:	6f 5f       	subi	r22, 0xFF	; 255
    471e:	7f 4f       	sbci	r23, 0xFF	; 255
    4720:	8f 4f       	sbci	r24, 0xFF	; 255
    4722:	9f 4f       	sbci	r25, 0xFF	; 255
    4724:	08 95       	ret

00004726 <__fp_split3>:
    4726:	57 fd       	sbrc	r21, 7
    4728:	90 58       	subi	r25, 0x80	; 128
    472a:	44 0f       	add	r20, r20
    472c:	55 1f       	adc	r21, r21
    472e:	59 f0       	breq	.+22     	; 0x4746 <__fp_splitA+0x10>
    4730:	5f 3f       	cpi	r21, 0xFF	; 255
    4732:	71 f0       	breq	.+28     	; 0x4750 <__fp_splitA+0x1a>
    4734:	47 95       	ror	r20

00004736 <__fp_splitA>:
    4736:	88 0f       	add	r24, r24
    4738:	97 fb       	bst	r25, 7
    473a:	99 1f       	adc	r25, r25
    473c:	61 f0       	breq	.+24     	; 0x4756 <__fp_splitA+0x20>
    473e:	9f 3f       	cpi	r25, 0xFF	; 255
    4740:	79 f0       	breq	.+30     	; 0x4760 <__fp_splitA+0x2a>
    4742:	87 95       	ror	r24
    4744:	08 95       	ret
    4746:	12 16       	cp	r1, r18
    4748:	13 06       	cpc	r1, r19
    474a:	14 06       	cpc	r1, r20
    474c:	55 1f       	adc	r21, r21
    474e:	f2 cf       	rjmp	.-28     	; 0x4734 <__fp_split3+0xe>
    4750:	46 95       	lsr	r20
    4752:	f1 df       	rcall	.-30     	; 0x4736 <__fp_splitA>
    4754:	08 c0       	rjmp	.+16     	; 0x4766 <__fp_splitA+0x30>
    4756:	16 16       	cp	r1, r22
    4758:	17 06       	cpc	r1, r23
    475a:	18 06       	cpc	r1, r24
    475c:	99 1f       	adc	r25, r25
    475e:	f1 cf       	rjmp	.-30     	; 0x4742 <__fp_splitA+0xc>
    4760:	86 95       	lsr	r24
    4762:	71 05       	cpc	r23, r1
    4764:	61 05       	cpc	r22, r1
    4766:	08 94       	sec
    4768:	08 95       	ret

0000476a <__fp_zero>:
    476a:	e8 94       	clt

0000476c <__fp_szero>:
    476c:	bb 27       	eor	r27, r27
    476e:	66 27       	eor	r22, r22
    4770:	77 27       	eor	r23, r23
    4772:	cb 01       	movw	r24, r22
    4774:	97 f9       	bld	r25, 7
    4776:	08 95       	ret

00004778 <__tablejump2__>:
    4778:	ee 0f       	add	r30, r30
    477a:	ff 1f       	adc	r31, r31

0000477c <__tablejump__>:
    477c:	05 90       	lpm	r0, Z+
    477e:	f4 91       	lpm	r31, Z
    4780:	e0 2d       	mov	r30, r0
    4782:	19 94       	eijmp

00004784 <__umulhisi3>:
    4784:	a2 9f       	mul	r26, r18
    4786:	b0 01       	movw	r22, r0
    4788:	b3 9f       	mul	r27, r19
    478a:	c0 01       	movw	r24, r0
    478c:	a3 9f       	mul	r26, r19
    478e:	70 0d       	add	r23, r0
    4790:	81 1d       	adc	r24, r1
    4792:	11 24       	eor	r1, r1
    4794:	91 1d       	adc	r25, r1
    4796:	b2 9f       	mul	r27, r18
    4798:	70 0d       	add	r23, r0
    479a:	81 1d       	adc	r24, r1
    479c:	11 24       	eor	r1, r1
    479e:	91 1d       	adc	r25, r1
    47a0:	08 95       	ret

000047a2 <__tablejump_elpm__>:
    47a2:	07 90       	elpm	r0, Z+
    47a4:	f6 91       	elpm	r31, Z
    47a6:	e0 2d       	mov	r30, r0
    47a8:	19 94       	eijmp

000047aa <_exit>:
    47aa:	f8 94       	cli

000047ac <__stop_program>:
    47ac:	ff cf       	rjmp	.-2      	; 0x47ac <__stop_program>
